(lp0
(ilib.DataStructures.common
Contact
p1
(dp2
S'name'
p3
S'Soorej'
p4
sS'keyE'
p5
S'254556'
p6
sS'keyN'
p7
S'123456789'
p8
sba(ilib.DataStructures.common
Contact
p9
(dp10
g3
S'as'
p11
sg5
S'asc'
p12
sg7
S'asd'
p13
sba(ilib.DataStructures.common
Contact
p14
(dp15
g3
S''
p16
sg5
g16
sg7
g16
sba(ilib.DataStructures.common
Contact
p17
(dp18
g3
g16
sg5
g16
sg7
g16
sba.