(lp0
(ilib.DataStructures.common
Contact
p1
(dp2
S'h'
p3
S'ZDc3NDdiNThkMWY4NTM2MzdmNjUwYzg3ODc5ZjVlZGY0MjA5YzY4MTk4NTcxOWI3MmNjYmQ4YzQ3MGZhYTVkNQ=='
p4
sS'name'
p5
S'Shamnas'
p6
sS'keyE'
p7
I65537
sS'keyN'
p8
L125811025123610480075510685261971735203506918329083679510517284826251398873351055178419209145146144312704494037897269411093936167416839781783382616724486850921449522852240969329536780060659257289173765035975020739065771289184299303038385397677612751137970494170504158257963281329274610484861092653883223627537L
sba(ilib.DataStructures.common
Contact
p9
(dp10
g3
S'Yjk0NDUyYjE2MmM'
p11
sg5
S'Shamnas New'
p12
sg7
I65537
sg8
L91034642724203983071705588963043235764531446255718504575709048614461332809276910636699451442629528867229893628586175126342985153763204342597314185452807180188296456711706819726498900891040388103431209821937079158572432051370203940330031918154964569773532774118453852567061804874159676444129272716414614838807L
sba.