(lp0
(ilib.DataStructures.common
Contact
p1
(dp2
S'h'
p3
S'ZTNiMGM0NDI5OGZjMWMxNDlhZmJmNGM4OTk2ZmI5MjQyN2FlNDFlNDY0OWI5MzRjYTQ5NTk5MWI3ODUyYjg1NQ=='
p4
sS'name'
p5
S'So'
p6
sS'keyE'
p7
S''
p8
sS'keyN'
p9
g8
sba(ilib.DataStructures.common
Contact
p10
(dp11
g3
S'ZTNiMGM0NDI5OGZjMWMxNDlhZmJmNGM4OTk2ZmI5MjQyN2FlNDFlNDY0OWI5MzRjYTQ5NTk5MWI3ODUyYjg1NQ=='
p12
sg5
S'Sore'
p13
sg7
g8
sg9
g8
sba.