(lp0
(ilib.DataStructures.common
Contact
p1
(dp2
S'h'
p3
S'ZTNiMGM0NDI5OGZjMWMxNDlhZmJmNGM4OTk2ZmI5MjQyN2FlNDFlNDY0OWI5MzRjYTQ5NTk5MWI3ODUyYjg1NQ=='
p4
sS'name'
p5
S'So'
p6
sS'keyE'
p7
S''
p8
sS'keyN'
p9
g8
sba(ilib.DataStructures.common
Contact
p10
(dp11
g3
S'ZTNiMGM0NDI5OGZjMWMxNDlhZmJmNGM4OTk2ZmI5MjQyN2FlNDFlNDY0OWI5MzRjYTQ5NTk5MWI3ODUyYjg1NQ=='
p12
sg5
S'Sore'
p13
sg7
g8
sg9
g8
sba(ilib.DataStructures.common
Contact
p14
(dp15
g3
S'ZTNiMGM0NDI5OGZjMWMxNDlhZmJmNGM4OTk2ZmI5MjQyN2FlNDFlNDY0OWI5MzRjYTQ5NTk5MWI3ODUyYjg1NQ=='
p16
sg5
S'Shamnas'
p17
sg7
g8
sg9
g8
sba(ilib.DataStructures.common
Contact
p18
(dp19
g3
S'YTM5NGNkNmFjNDMwMmE5ZTI2M2RhOTAxZGY4MDFhNjQ1MGI2NjIwYjFmNzNkNGZiN2FiNzU3YzY0ZTM3NjUzYQ=='
p20
sg5
S'KKumar'
p21
sg7
S'1256'
p22
sg9
S'454545'
p23
sba(ilib.DataStructures.common
Contact
p24
(dp25
g3
S'Y2YzYTQ1NWUyYzgwNjQ2ODFiMTlmNjZhMWFjNzNlZGZiOWI1NWI0NDk2YmU2ODczNmQ0MTQ3MmVkNTVmOTFmYg=='
p26
sg5
S'KKumar'
p27
sg7
S'1256'
p28
sg9
S'L86287059521307335159313558100399253497504956829017365054551377677877109795628546231571188849390449324875025839919266885803394348936671395131989200097912502588964125517317984378545307627784781118079920412699652524615418260049543803451993623437558605660393981335855878553468513965809635076180139944733241164973L\nI65537'
p29
sba(ilib.DataStructures.common
Contact
p30
(dp31
g3
S'NTFlZjg3OGFlMjc4OTEyNGNlOWFlNDFjOThhYmNjYTY1ZTQyZDkzMGFkZTI5NWY0OWQyYTMwNWU5NzllNGQyZg=='
p32
sg5
S'Asad'
p33
sg7
S'1231456'
p34
sg9
S'345'
p35
sba.