(lp0
(ilib.DataStructures.common
Contact
p1
(dp2
S'h'
p3
S'ZjE1MzQzOTIyNzliZGRiZjlkNDNkZGU4NzAxY2I1YmUxNGI4MmY3NmVjNjYwN2JmOGQ2YWQ1NTdmNjBmMzA0ZQ=='
p4
sS'name'
p5
S'none'
p6
sS'keyE'
p7
I0
sS'keyN'
p8
I0
sba.