(lp0
(ilib.DataStructures.common
Contact
p1
(dp2
S'h'
p3
S'ZDc3NDdiNThkMWY4NTM2MzdmNjUwYzg3ODc5ZjVlZGY0MjA5YzY4MTk4NTcxOWI3MmNjYmQ4YzQ3MGZhYTVkNQ=='
p4
sS'name'
p5
S'Shamnas'
p6
sS'keyE'
p7
I65537
sS'keyN'
p8
L125811025123610480075510685261971735203506918329083679510517284826251398873351055178419209145146144312704494037897269411093936167416839781783382616724486850921449522852240969329536780060659257289173765035975020739065771289184299303038385397677612751137970494170504158257963281329274610484861092653883223627537L
sba.