(lp0
(ilib.DataStructures.common
Contact
p1
(dp2
S'h'
p3
S'YjI4NWEzM2I4ZDFjN2NhNGQ5NjhjMWQxZDhmY2ZiZGVjZDlkNDllNTQzNmQ0ZjM2NzE5ZjczNDdiODJiYWExMA=='
p4
sS'name'
p5
S'Jerry'
p6
sS'keyE'
p7
S'52411146091315853100410305609691710199916230512279713806672831162831367202760127000376079653899931435204789155483566620720921788971681044848324766741771017103326962234970060331907695993223084035957564235402023696744520788447322519235194069682512618304973771533923313114931105617223114129458726292562644724099'
p8
sS'keyN'
p9
S'65537'
p10
sba(ilib.DataStructures.common
Contact
p11
(dp12
g3
S'ZGIxYjJhMTViZTJiNTEwMWIzNjkxYjhkNjFlODRkNzFkMmIwMWY3M2Q3NDFlNWE3NzZmMGY2MjkwZjJhMjM2Yg=='
p13
sg5
S'JerryReal'
p14
sg7
S'65537'
p15
sg9
S'52411146091315853100410305609691710199916230512279713806672831162831367202760127000376079653899931435204789155483566620720921788971681044848324766741771017103326962234970060331907695993223084035957564235402023696744520788447322519235194069682512618304973771533923313114931105617223114129458726292562644724099'
p16
sba(ilib.DataStructures.common
Contact
p17
(dp18
g3
S'ZGIxYjJhMTViZTJiNTEwMWIzNjkxYjhkNjFlODRkNzFkMmIwMWY3M2Q3NDFlNWE3NzZmMGY2MjkwZjJhMjM2Yg=='
p19
sg5
S'Shamnas'
p20
sg7
I65537
sg9
L52411146091315853100410305609691710199916230512279713806672831162831367202760127000376079653899931435204789155483566620720921788971681044848324766741771017103326962234970060331907695993223084035957564235402023696744520788447322519235194069682512618304973771533923313114931105617223114129458726292562644724099L
sba.