(lp0
(ccopy_reg
_reconstructor
p1
(clib.CryptoLib.rsa.key
PublicKey
p2
c__builtin__
object
p3
Ntp4
Rp5
(L52411146091315853100410305609691710199916230512279713806672831162831367202760127000376079653899931435204789155483566620720921788971681044848324766741771017103326962234970060331907695993223084035957564235402023696744520788447322519235194069682512618304973771533923313114931105617223114129458726292562644724099L
I65537
tp6
bg1
(clib.CryptoLib.rsa.key
PrivateKey
p7
g3
Ntp8
Rp9
(L52411146091315853100410305609691710199916230512279713806672831162831367202760127000376079653899931435204789155483566620720921788971681044848324766741771017103326962234970060331907695993223084035957564235402023696744520788447322519235194069682512618304973771533923313114931105617223114129458726292562644724099L
I65537
L47791172778995611353594456005541550598089536222497759999492933614459046096662117422867609443780763577335523443729464901571361003844357526895278790217008616387173347692587030465947470268027911477608607530584773358831475015655886102031651762898223422539226991529815612434471820508184605248104138781502087498753L
L33233536517569087006043973757712568881381715610307199593778664557740477497273077799715024943580297125649664537395245932724292694752817861242868610742796536805017507L
L1577055937565008169381324320540872506739670292401753329102701520671197393033142735220933720858485287680654264804930471401479305129692088384746657L
L2123717151160097904715079452786978935185111081922678058176984713487299079277044262404542845472241395886610541871176434170763657256584848297681214303230723044073017L
L645842872092211334940954932923333036428063704133095161508573876028720674300265771557969393382682860614020779301761278696679785012676899463787105L
L29390729264226171486469501221709542766583971789597014515388540586464404478328046248725535077094528906774866165535638783465971428555357089156743606459246950568561287L
tp10
btp11
a.