(lp0
(ccopy_reg
_reconstructor
p1
(crsa.key
PublicKey
p2
c__builtin__
object
p3
Ntp4
Rp5
(L22004625804130037786599010822756829889292837324044351217833508032906036029150465898591287103969644064059677854676364399573344700855444208552423222688790165212316322121355139083112292654496736760364369129560231867352772925391550667748204091694081695472319808633351906504493973628132429857134497415642657511398771458914027182393647071189510675861721251403987091260931364935448909411545008067015208745208416498857092285634263960597474100410658984584187236880539751799612831198013354692434491773686079812324911414642846393900293422628828427783096281298489988127007222348576766060248014879627244410440243263143151220660937L
I65537
tp6
bg1
(crsa.key
PrivateKey
p7
g3
Ntp8
Rp9
(L22004625804130037786599010822756829889292837324044351217833508032906036029150465898591287103969644064059677854676364399573344700855444208552423222688790165212316322121355139083112292654496736760364369129560231867352772925391550667748204091694081695472319808633351906504493973628132429857134497415642657511398771458914027182393647071189510675861721251403987091260931364935448909411545008067015208745208416498857092285634263960597474100410658984584187236880539751799612831198013354692434491773686079812324911414642846393900293422628828427783096281298489988127007222348576766060248014879627244410440243263143151220660937L
I65537
L16705008584965466377720380631774731182110663218993524362434510660560813136980989820294067584475970842717261276892643208751890060601811430308203192066090560901603277148843893293896362305860447442489104739353498269624830421853393050833519968476671904341583036131271761055862927352800292700030320867503438687873752131932697839629227777151948048775206171056441809013945243361133035024218862533142075990515534986003778114617000686953131692999137794250495859631320606132072089990255852480530334536781370943335400800877650850934358432837805190098185595840255978688811745941861436195700351070371636473380986233182655086200613L
L2522686609777860178099469878728440292042448122557853386711774770566864624078904532643705583863795873949685699870646687495630466898938807801709625301492359242399039367449060245256568579863832610065205364230994328814419768692201586219425380831302826970824458808478371208702581716495841138987513292095658311094799260692552839455467L
L8722694970846059905124483277987227230338839109030403320237099412231099316090387452760709301635244230504254336861565912311640267138516528174754735380687961481771394540593744050114135305686637968789401054429933345691125957483808035852217787392706241831845866289732551700684997685224104592411L
L2445739991334142240201475764143119753357539539665851175441243043964133916485732276349478392168360807467768283540307753331665602725556158660070283540690320300647728204357513921343849343537058400267375962166545884984216599221281175293496038074054641196152470570412114528564698370427586772189581756155666841178896736589764900946357L
L3206143081811964799343022684642786773145433805292176718207905270934509535457853477418141299832024631408471286764091448520303071472599060793165186392196656913413661337692642330640697703262056884357963928775541516461747305946678239401316420960722960457258267437529448066249613336578779247243L
L1774870167062748669966997534425896772879891185612461725963906513715099554089819758822388127240420918076106070442218282422104458593314741432009217153711388937870634155756628296132929728239783763359833136629892620814953646923390766782802529747079507785508804038252072359716366813788219868574981151286496342412884851599449706801995L
tp10
btp11
a(g1
(g2
g3
Ntp12
Rp13
(L24803253853621588786194097446075954990783533130313291602155818882875379595918675748754020677138406659030034398296917807583159302073146163416828121203363496670374528706979410506109588664320303441235932422085684875239686865642584885531762008914335485023862414362980907954043087171808413958997694119903420655107810315397669314641249109095602875389163236047886260707971330766889107074238617330544332838902706690893313217315570438777488068998612054849905354588280050871562037079973420875306865198926278018173566817223598185510026901068208332318902661258605359489725594685239407204676134890614439217173483129301515020431391L
I65537
tp14
bg1
(g7
g3
Ntp15
Rp16
(L24803253853621588786194097446075954990783533130313291602155818882875379595918675748754020677138406659030034398296917807583159302073146163416828121203363496670374528706979410506109588664320303441235932422085684875239686865642584885531762008914335485023862414362980907954043087171808413958997694119903420655107810315397669314641249109095602875389163236047886260707971330766889107074238617330544332838902706690893313217315570438777488068998612054849905354588280050871562037079973420875306865198926278018173566817223598185510026901068208332318902661258605359489725594685239407204676134890614439217173483129301515020431391L
I65537
L21197647868247633976451949249350965699281103660967811505512114006284236555951676590135537148885700550410794309300248201820845514886505586355441095390396103704894599277933332048265835498856831953608260600287153971987958883449672390231990938237818797262409537032066781428902044837160524067981607057843781475753200467906951060094396321091294587848139299947967613071023317993436695957757942808250547630377317102052291000088003671782533539736889302405376442772577511610162893216310050132592419451076884325350625714940459792764291632171103051424492437181407643324061702031838898079674616430779763939021690964057981271534433L
L2682840669214145976628400289334166892508357158605477592403558388081383800017344223637362263542519619311554413122828173637507179097648573172132885467624554624523735290067355587055494289056989228980503288870786139465156836529905584761756928571251164440989679829362054419580850326851643362426918067843530628384910839997390582086023L
L9245146064110815800825656770535578983174343004275734038674075733472229528526420894424226527732673717979704264133113299097814085100529985537688430671622584735406838367833102945082762695961598455940376039224965035439122197714779440274511077533883045112360243159885748730286970406286220303017L
L2356210129219033738541243325960846208996384047713720177358805158935994762674493779454648475898810507779337609449986176026178162175602431826931727447785741109271665712890380287162063266392147733977139757706710844489914051558483080515086215339488754793391275029653800574976495462302621246846339474631703250203376689939573174294021L
L8042262799868129587943767528086933454854041147348209370963105689385412902960026476511362350214988917131131118272560373248186230550394654553971305256407884946908522748221084256208985783553881440608524009280486697138782008509995512306786647698348603107491302051437913470461879287461699795153L
L857973732767693748967329219012625355794040082513777184738268399179776538306440560724998793647378342856400534270152246095119951184045523740624790272828391026573593728319069924472118445669625091313677875074386590237016050970853601951439059709001014435781956254078598552080513867305145694714175214099201832310245298177248721074004L
tp17
btp18
a(g1
(g2
g3
Ntp19
Rp20
(L23043658736823270579572439564578334318072303183027132150865513628976674725933008986160040451694655786277433192199722896230479198853893164797199738090282553855026688710137102979695319122915270384570702522509927746255938565622672804056326486112980161105596154301819960035541779109931517052882004084868308177302731203090219218847497238692181833071697543379236868676981945267544219830247385467752313312039805555210457049274734280028790234912396076853099794747825541091232675123198182189465137909646008471776196887374439599014836454440892660675787957540396238848473457595345466160500794648985705396861969812478042941301653L
I65537
tp21
bg1
(g7
g3
Ntp22
Rp23
(L23043658736823270579572439564578334318072303183027132150865513628976674725933008986160040451694655786277433192199722896230479198853893164797199738090282553855026688710137102979695319122915270384570702522509927746255938565622672804056326486112980161105596154301819960035541779109931517052882004084868308177302731203090219218847497238692181833071697543379236868676981945267544219830247385467752313312039805555210457049274734280028790234912396076853099794747825541091232675123198182189465137909646008471776196887374439599014836454440892660675787957540396238848473457595345466160500794648985705396861969812478042941301653L
I65537
L21843603695109767940024081595279985980071162289124884534543375020012312749650765983432356577522297268210312642205404354874685898799140317223266803929394286825605047674268846384646718726703820092025425690959408445739108098490057910481029443265373445969819422461300688118894631817528809151975807835450000612051114286461964982977475204753453220149693396335747231426246888017731676482376335331902311226426381893070512669955421649855537761526101818699846100981711685750983936593790348936279223908405694328612255495828616470437821660998836699448734556580875763293067648630773676110703547303130832519546786712138125627743889L
L3269326773422302085522443321727185343614192344374550175577407389806212600290749988528848006723603546139303860287011824238189807472666850880697390644652511589879335034975764820456703505685185155401494043831034575586142072049735727077502045820786930107542956722897945824572889837727625850822986101166336689630206481469981434643899L
L7048441570342439123546657515996589505207576709002600268713209893194712742012227428352026251419230922248109911679324516780856338333667374661197093219034986595169567875626957579189635521084697011645171016590812472634340933381769636195743723186470609285393706449119353784822362084676997201647L
L956449062771042279715608065786888697882339896832220738153190287696332059529342959397952344979349844975035062839050882800842473391724392815289242272760770323828623382602046765988928030189084867853469724008917495730855882133902728157482745998778519171642295333141924642484947691513980964002458344410976598719501180542654592770915L
L5901108389506985249094123186066143850973259783729247206067185156929683895226649171708307191191567839126471195567890762641695628851335813056521099651116631513349085551181401886149138828545649638096935906576762585424625061777687690440884726910271386558436719397542301643642800024782064474375L
L2498529898464277578542967426125383919806862371750169550092038991139361050045865434211785371193582912822668475866661051765056529897687723731125840668978551197907097124270914054669918389494575236660706421532387308563591536157035646904383006390694699848327028772991655944286027581391846391609276409713889629439956799166581189124870L
tp24
btp25
a(g1
(g2
g3
Ntp26
Rp27
(L21612757032974699507092547180786972444311522349280446161053749647146318439690920126580872420269428331509826904728981242551149320443321528506593917154827437422760685585786510359425259801480033518380538617130808796475229197969726530244880322588773712119450690521399904289182745141896979968137863062821122143106638132282467242577557581298856208216674096167127114308028602026193999188017095949166692196828252189371405935681601946965276618145929583487776117430054839459100125279420314798979420452317936883752503896466801208818980306882125088049466348812124748144000055923026977799174653457462484247877763340239718073201097L
I65537
tp28
bg1
(g7
g3
Ntp29
Rp30
(L21612757032974699507092547180786972444311522349280446161053749647146318439690920126580872420269428331509826904728981242551149320443321528506593917154827437422760685585786510359425259801480033518380538617130808796475229197969726530244880322588773712119450690521399904289182745141896979968137863062821122143106638132282467242577557581298856208216674096167127114308028602026193999188017095949166692196828252189371405935681601946965276618145929583487776117430054839459100125279420314798979420452317936883752503896466801208818980306882125088049466348812124748144000055923026977799174653457462484247877763340239718073201097L
I65537
L3407611248939188092326278133254066958619878243360465846501493737948989249390821637669715652511466850015884788845454677194272333615222566703673267710771501760675437755129652128476146444431285935355998985776166856798122332462901631704538632731278495618204739081093507652473035164124410546877971632714692185758734829091297268917953680457529760798753545194311832233859372631416142318080313865328045597437205404951041138838940936825353095039267421368306105842342634719577993927807833172037660043161091038572379523219414637230681190323122766499035884380291104156276055265476492402722244039329050169406221811767241472885573L
L2604484167993160422983385920679851396292111218106998210001585251654468421212744827872475694422976166145086084008811403416480200000935226500702232162040412734430422791285664550954323935341110941119419599689924614616137514533636241687630531420166846802466795733442910859918042463471317442876523624113794293944283221151156910775151L
L8298286969288060682857242810829462694914186115995660435353713922203778623937967385644489567468987306424207953455705717569321989044094910373325969382410806874602009247733221916968645241906176829680059967281308309100128455519339162542883106944329416860627887591604794504896079817322953919047L
L718153613986059813597399438067131461348470967887019006865414148994429083414491230670972248865794929557469072800452124313581849859116231717872194903645761913482340819099489511272954023460781174252239675084252066935139249967763866572122180345359645521878899945054653739865708612804830515742582944159183006330273617794872461885923L
L1595663707325146722086256220182078656046333726502240151461426413287334150462582434256860361768835589599125206058391495686537310312246274021158335995806048312155492630726674437304711343798184848370052271353266815864012981925549111591397423039083865774717070348496324524325196421226236557789L
L2181422893684760967264125755692750811520265110798267930320592923495617622045995787845211075815977821958331966089952060968411489377217534015297679684970591787563978537064661343470848514109423353968031913163529267327779802086610640498377716468794617916990286307067020992352483365564350576432135546277410952622137878978603272242710L
tp31
btp32
a.