(lp0
(ccopy_reg
_reconstructor
p1
(clib.CryptoLib.rsa.key
PublicKey
p2
c__builtin__
object
p3
Ntp4
Rp5
(L159708757927346951256547112409424939709402746357977142357378778324306422711300305660159526152181687363805506078014410338461298613213691611307740251025691047632232309281637419464577261139589611551413221455751251881418378893256215089780120192503112430737871597035561461495705801033012386382502819330020846000427L
I65537
tp6
bg1
(clib.CryptoLib.rsa.key
PrivateKey
p7
g3
Ntp8
Rp9
(L159708757927346951256547112409424939709402746357977142357378778324306422711300305660159526152181687363805506078014410338461298613213691611307740251025691047632232309281637419464577261139589611551413221455751251881418378893256215089780120192503112430737871597035561461495705801033012386382502819330020846000427L
I65537
L117827763775350602563518461817112551076328367016411383037392943081900908563316616246919652242002788741128828362269782783388654489029024872947198471989525264252906178796526307347560111228996834279074558232032201214631581261069382449050851207183059593986358823862742144993509376121635901278296386918120682216633L
L54157425298354188165781529583053941306842451541337876074234393424427671041693253097759396033252004283491428700194864484923498228313825717986230339595798738343708471L
L2948972500954553411855104492249323184266037474803268341086030208444043667185681841149789120146985195543675961407232037382467405714701002360197037L
L18232071568085027595123943530996522682650487638380419607638943224791304243295821339027809553101896188514448195864920504918857155672184213740790698117126318935521003L
L519176109922847204876393420992304971238560513668311184818508881166781754306550453685494710900039903965438351507036380171794695014056489696384537L
L41269063250119703809321832706363997303320016436712606775732484466895319701809171660998140796891833926595355699715973931515238796497414140077508546632460597079097183L
tp10
btp11
a.