(lp0
(ccopy_reg
_reconstructor
p1
(crsa.key
PublicKey
p2
c__builtin__
object
p3
Ntp4
Rp5
(L61259040816383038822712944688016017412419378861008788903475785338474569949733759474460296221001085235507075477116945580159959903006281740559594978643626270000761550436691074620996071969167876983010999840724342768969975216703174904296803747484742428944161536241684507963386578775591911465412745839602687602529L
I65537
tp6
bg1
(crsa.key
PrivateKey
p7
g3
Ntp8
Rp9
(L61259040816383038822712944688016017412419378861008788903475785338474569949733759474460296221001085235507075477116945580159959903006281740559594978643626270000761550436691074620996071969167876983010999840724342768969975216703174904296803747484742428944161536241684507963386578775591911465412745839602687602529L
I65537
L12980519398463635200436618442749567935765566233468560530731773364593990461753707338172789929673956248615083954876222946910620919069353716696691868088087297049962718219141851087602412642027338890302672503671240693255548692451462085955672148843259483545400505366534707611562153760989879657534691068434612549457L
L36691514425342922802894873983046710773222710961615718176211873997501383935814978506937658487423544846590204813732411930166965224777094361017919444194634762440958533L
L1669569702308914857519370740610054669393010919811123960143627780897632995835804179213614057034030187470346548863607205276557716873480925851695213L
L3464970669674341962969259732381343256106861134037866850673288190953752310584233364045305222678247692990933023974089406530713150985633108020506026216039711075378677L
L783337637918989623477777910234197034181694199814948054541044152689645802965578874630200018916633264179405313502404106917449276532991516075099197L
L32493008078356973554595781258982794693369379109066403497573181313851562808859735301256112963655534118324608377958355540812716223020201774334939686679590738198466027L
tp10
btp11
a(g1
(g2
g3
Ntp12
Rp13
(L50274195227687220840348844178355650523055296076412643989848645690405420789967501451228757702775236843919810921371693250824993147787253667431125038623207213416824713924832213561927119929496896109766938641984437422287370200662150219998050258468491299820460718577354376342130495423446935459630899980444962020169L
I65537
tp14
bg1
(g7
g3
Ntp15
Rp16
(L50274195227687220840348844178355650523055296076412643989848645690405420789967501451228757702775236843919810921371693250824993147787253667431125038623207213416824713924832213561927119929496896109766938641984437422287370200662150219998050258468491299820460718577354376342130495423446935459630899980444962020169L
I65537
L440322078531096399932255619854069356245078962232950205993150779350484635144137599112033003057707645275340211924063535498627432852127555504607561439096748134606507797793705839260526770648927717751693992326230461534650641658345081639753972532754183105292431742443588115786991065612781055005046919298507876353L
L31595187034849391434382404175928974566927480460230688911081209366087512099302049934485392428076368267190269993076440583803622803337356450699290429147537015141976449L
L1591197898978567286507210206195641147464809625764049836922370122327942632464540797457683655622790907446683905496974548793657240498175021613262281L
L25474484308230109598916651953251795857164883882372550357056962999731910628182852748647979329111545777295284445491130153787436601479305616848516190344156788029924737L
L1583428496539133965914532676464609742805018376847491313526194550679180228900315198861677448902933527792703118311735190025114732953438216344234953L
L5618581486419982491211493812670731762023531760978215881151297912632553631072387770990252485217420446988986296210563360133483361994514894875421059901199616810430021L
tp17
btp18
a(g1
(g2
g3
Ntp19
Rp20
(L64291994443987813647663820074123304705060778055805638364450361932485844582587417044883984703992076762142968041928249926974947332318264015873650667871182007094841024294058702430144040705172354935025715808510642269082161368082529036638393281710807810970966874130090228523802977829708873003139602585181223914839L
I65537
tp21
bg1
(g7
g3
Ntp22
Rp23
(L64291994443987813647663820074123304705060778055805638364450361932485844582587417044883984703992076762142968041928249926974947332318264015873650667871182007094841024294058702430144040705172354935025715808510642269082161368082529036638393281710807810970966874130090228523802977829708873003139602585181223914839L
I65537
L57129691448190706251206955244161996624867166194026231835331664212585953661466970093624421826169684030702624271628752654947785721727976917289743473962832435051361367396208420203074104067472252843391013476518269061647706109274115841521500807566716866035014773766197629811141297386197055564490252344396912257441L
L38482107391805997868302230588542917721970250009233223099569996268448496039642157569398929167458684014869976592152432008099119966788928410741250771072011021948291667L
L1670698379103778493364534114460005156759659751259057072421654444322340817992380802089127200409789377993389467633251885458654456626118242996369517L
L13770578185645273082494223290088171665099810842982399989793789042642387187721254853251502003986161367116753758016980262354708965334604102853408198165628614168047609L
L411983406391750678719871764404659098499974994889873221957159428638682728223367962258913051952677207344723853493766631382231635160820558235261421L
L13778800178691104693034879851613181385216172443181339518320084027589842897784454658340701924267401639189304967438360506627637402630902105043548899243677676386245517L
tp24
btp25
a(g1
(g2
g3
Ntp26
Rp27
(L120953324857461299945630562494009984154522805397453520878552635320630676668782385176065501104569141689195601705505820984852548395056658405796325867677950336203816955630297276217482544597615563218688264515406244508951611845258901952130416017539216398921780209610416756956545404032452336648028329987280383199843L
I65537
tp28
bg1
(g7
g3
Ntp29
Rp30
(L120953324857461299945630562494009984154522805397453520878552635320630676668782385176065501104569141689195601705505820984852548395056658405796325867677950336203816955630297276217482544597615563218688264515406244508951611845258901952130416017539216398921780209610416756956545404032452336648028329987280383199843L
I65537
L19755014560847548020477433219950300904679983962865899987549436325618059463549546834987947629938936671516085885160051693270391962108220876385001931423333483495809873980697356725762434798553240631452408187236373486836165266794992919441327473436010842006615911170997217988267160477896459488095950797684800546049L
L47452706828368905545096231412646543538336240396399460562180438793391748602443174779641716139317330839136871404796735021401659994640416327457510915631753398907528619L
L2548923611353422873096877434077869660914291983141980497902649943408935737964541725304596378124907005531371189693339602059119236733414387008800297L
L35096626415379062050168676152918248598352598448117470320124665901601917058419298532413648240001673259908790923193117474974156022707939945748515633954901059734893681L
L2360448645752026909854320282460594589171754806427971045336370717540194376807086101751091120813872027598218546373475651747409945474886744311627001L
L8336807461966797919761025787873447207927043172798450725896468071664079420293901563024330059623178067783291619494948039362873758075576714849342316993652793999611596L
tp31
btp32
a(g1
(g2
g3
Ntp33
Rp34
(L98236224721838916672843720962402106644984391388605561443743748968881271780958707391973020092952281302182633316991845640450659077997975962619461150720736226598999503818805172367977715190252715950691898389476587261022237375450598530456941437699763712320773174025633748337234862145394210006401457660911727965963L
I65537
tp35
bg1
(g7
g3
Ntp36
Rp37
(L98236224721838916672843720962402106644984391388605561443743748968881271780958707391973020092952281302182633316991845640450659077997975962619461150720736226598999503818805172367977715190252715950691898389476587261022237375450598530456941437699763712320773174025633748337234862145394210006401457660911727965963L
I65537
L91060784775801672152757313402595907329947995435521733642178200861491024317457947023244289037442224836467872713234579285859553214037521395992069552712481508345688673501043553715542935320874707991076179938179338826785051028484150768087868155337701125585981098491314932016357808093572778243464898856661060881473L
L43294927163019552611093213559607787588138194352937883753276507376752369025240582761226022569651498650855388520821350888253060968878011080873973374703614642562723579L
L2269000808153514615082936293257891937629702390283286761282953997158126970711363797323310384974043876249193038960775819851790360761019619026197297L
L37647303190047732795229870978759000245248018978366786995616546414794146909538281129693891606257527886765443658155959906919227894081512664248378697187994434447174745L
L470820177763395414048748808337489852447111140355256064004865822472090096811020282890576284011505297360464716676497098954247175122283684012653265L
L2457286261179363621074347749590494180036140891878350169867796804133698557358576990120181303654937091002644161252828175110019918416885919960120758817010346634652139L
tp38
btp39
a(g1
(g2
g3
Ntp40
Rp41
(L105819657639139293997795154450945173276841229554329830670181724613500195804797793171654461944442178355498507901703067229294746484128870807061834381564978260679461734129958048098140571072017463950141544136982329749037774549446552339355334276377738827402097321595498664447356224092466968189795723510246136006501L
I65537
tp42
bg1
(g7
g3
Ntp43
Rp44
(L105819657639139293997795154450945173276841229554329830670181724613500195804797793171654461944442178355498507901703067229294746484128870807061834381564978260679461734129958048098140571072017463950141544136982329749037774549446552339355334276377738827402097321595498664447356224092466968189795723510246136006501L
I65537
L6707277687916514751466211019564921338968803386921679610051343272418325730093382865176200236770264261237786316488007404527066800358138598540288078792042140033505906971755817261146393603533153017043189023065733456177389377201386894057081909484015006382499470242505813463153771729270559016294801020101765218041L
L48441707742774821234784202979650082066814783310703907506256700494472248217782757592585593782071127226892708226581086390047426982615916311867136547570550800419905639L
L2184474135409119843305199427854332381884937835874406897254496544521258187472016546726872525583724538685163197696327044695118989035372924438514259L
L43273567294822038073003664547410074531969291986590174480885584180674699359294620493124854478712088491972986299726714721536332341993817545482117112127773572342087303L
L141860657648369837696368902527549912527309694210621111047425687679974286981108418494431686968953898357325702570999098253237505795726798089786177L
L37069894901853050794169103678678690888737381430978239255067386377591466928432229849274068761651423692072205768675689322695479763730705149903519797726822877214095738L
tp45
btp46
a(g1
(g2
g3
Ntp47
Rp48
(L147685982356034571740567774815864715733473645680830993027116858428008374478775763474336183084014107489575390689177338174940424720621137628968791186246154261579486831023614735152081672234880776199673119536701046148822881165470608587701048961733446823297092181611257285096257075460409325078354849509666443784753L
I65537
tp49
bg1
(g7
g3
Ntp50
Rp51
(L147685982356034571740567774815864715733473645680830993027116858428008374478775763474336183084014107489575390689177338174940424720621137628968791186246154261579486831023614735152081672234880776199673119536701046148822881165470608587701048961733446823297092181611257285096257075460409325078354849509666443784753L
I65537
L11109631094118596192700293419628805843508629830576571945979921449716668235963875580641124595330722338886532433551189056600947462847890634463221390835079131500714215294431471781356022244574067982000687660953006188789536311992721807675450905310490571313638338978002479290656182956024806860375039467733445749193L
L52136908614284901122764759830526818280488469016774734980336080409789682620185427707303664092848223294426447981486588885026174387906898761652837728598862693307992287L
L2832657061595906468857435959559546847672045146177659562951834583006222346380988119826426815396523112931280543760369153196133445933893048828679919L
L10540029330464633031348860994471059331342474113908913495498309799797114683840223563697853816411280809738865210594256925671174824379793119812296062776848678206777695L
L710660350744768514899277691183271575894895498626013984986405606203950559518992426662589219810940888701284994743549286919615272564277728746222061L
L52048718318667841157823587362465237895419223456167801252875028789165723341653608749059259730303110284758494593436786598605752241169423318076940225576013966274262583L
tp52
btp53
a(g1
(g2
g3
Ntp54
Rp55
(L139971761221026245439141917001863525254299216719744296064641257041277114594857461226664655406316684135685432042434781959412623921077400805122480749794706065006743136533736169952012349427110647818993692972613580564206088512927882808113379819992442682429078588799181700689656998307401938816529818731711189562413L
I65537
tp56
bg1
(g7
g3
Ntp57
Rp58
(L139971761221026245439141917001863525254299216719744296064641257041277114594857461226664655406316684135685432042434781959412623921077400805122480749794706065006743136533736169952012349427110647818993692972613580564206088512927882808113379819992442682429078588799181700689656998307401938816529818731711189562413L
I65537
L12870131881500589819739524113908625710398814104294965104986926696838974816494668070736854196537289448733393556124204588055914548246218430072601258477833005734533240476758917795985803843631340586383817305362827244261579148728121433577947421678351434833595279527124085545981658121754234250809293172238924077313L
L53335737977249672941223464755421453655218825740818159235032943576927074727249221385344694519665946542429041396284349890516425991534127343796622822619602072508730593L
L2624352198533957030335057696909590476070840994492230745155144450601089298226642296206807972076376086538656795247066648376163954685583501547201741L
L21448393646190932303369766904636043930654319733879527391233856111355616742247176855986075408788867679718592337138929785686870119274332455647344164214712492499925153L
L5766310886810348541560466734134626677360896946867894888419378379946547125206165839964910630315671398775753826320667674232381852613394330268353L
L31386617686567145458637561712792288706463078958519971954634674428552648762049790745306156465281619143485634439313131507175187486066571586773122568387454860912711701L
tp59
btp60
a(g1
(g2
g3
Ntp61
Rp62
(L47732727193799603390670763012288932727715855434818792254620010364283731594622656120130211620940550792343041968440246831304611119322227258996679523284075288423136465818691996902522838775684803325776635973440166040724338438520634995764841987120170947022763994237275530212954584114927857637039407537421883232583L
I65537
tp63
bg1
(g7
g3
Ntp64
Rp65
(L47732727193799603390670763012288932727715855434818792254620010364283731594622656120130211620940550792343041968440246831304611119322227258996679523284075288423136465818691996902522838775684803325776635973440166040724338438520634995764841987120170947022763994237275530212954584114927857637039407537421883232583L
I65537
L16370729650961040105773940525614818208353590835839632474893479606298814945028509721411824871505878513808910299901298930790755514121880801691691181656333198731260001383165290189623153637994840175510197984905245054859304688947385447403726889089284351625861455155236231295305653694033549982401014016605875318073L
L29925926565495228526747642688023715477165730862749237384049725293300046399144528819780492634731600182820779767669637574937008949991432883347729260862555232968201933L
L1595029216199297968898592645004069089298064872955995185750389697491977370349783260424481013756351770847668548498623857173288273484004020153598051L
L9501939452544214877292089914019340149294927957076901303457447451489703000134252410253937031541417339889186355576811393516093492841779862819215072238413596027210797L
L691365105887871849527783103691511522036256295620198593796043763624435069648081130947071610811857191425755229217089703689848482305569406602427023L
L19816986865684761028028438745243514597841039489776055411811929270018684409213799745098940042323101499010987038754703174863048488572732206616916231342865387736342228L
tp66
btp67
a(g1
(g2
g3
Ntp68
Rp69
(L109573124952460641774898025108649589101249398887410200599408435055213235337591997640165402303048563604200351079252449722546398808101142409219185511460028961248709164347634363496294466750278415198959810893196316736521081699174078107661741326808391142040322423689968133975334644549546159161005510321738766475269L
I65537
tp70
bg1
(g7
g3
Ntp71
Rp72
(L109573124952460641774898025108649589101249398887410200599408435055213235337591997640165402303048563604200351079252449722546398808101142409219185511460028961248709164347634363496294466750278415198959810893196316736521081699174078107661741326808391142040322423689968133975334644549546159161005510321738766475269L
I65537
L31422208986626566695415314767108051597858937740360213468197844399769253168968735273956216654462283967489225905724560783763935169437918587040379812975899551093093983331161599416417151598439149024161082867677944723024357006174938298775064395348148606933808465995481924227220803054570323862453966884499802508801L
L37212847473540499073844643089799697865095294961706586392467961427448675614229248984331006157297163924028822222639859702952641356039482690035551547017923931215087173L
L2944497193620309974842867538328148405766992393634293946499738495325723297380824012965478342125218692399165234869311435493888608985762207702658753L
L20763266453529386905614798722320300774111412650330725309571325289798369183598897532844529077526975497962402035724426656054888634913037879770664104548643123620887325L
L1302844646849897747081701525496126576902074330997867706190387367249879063390895749393059507834461321729572508365355341356055081608391175961086081L
L10601315456173081607996276584499051224526222046439432330517424678374230062271105336112464590772872768034157956866810274548969546863149869225633377982498541304583968L
tp73
btp74
a(g1
(g2
g3
Ntp75
Rp76
(L66575024056039259406188529752112230898132537934170477418290355342420143570367012931911043803817454873906913512351872331052752368686849413778372875673835948621348956907346399079900355857135745081154133084681361123777029762697713163912845871597590590173143386014255491726281700456950440378348107070474635095149L
I65537
tp77
bg1
(g7
g3
Ntp78
Rp79
(L66575024056039259406188529752112230898132537934170477418290355342420143570367012931911043803817454873906913512351872331052752368686849413778372875673835948621348956907346399079900355857135745081154133084681361123777029762697713163912845871597590590173143386014255491726281700456950440378348107070474635095149L
I65537
L4285823679637908897793756305967033922199996605646661339819750815412218833992682416951228982228448694829077744001290101236119478210626328283732166906066008207230034938702662812448437337008091203259548032300788981127283477971411569696320594342672353979208282263249471899638209558789287292092398728094669268705L
L33170198124521506622646716082162403989921124994292888621151468875376460352503279141354672586652912280747960182757538196756413312603491830224376106598251963337366757L
L2007073452082361680523472406823339937296356167317324077758159410860392721225929747371785045673584714663284860696904827843103009573420753454670057L
L3543411463292110836094872503947678263170999528282413190055715604872218730303118196875414846257183558562590128316607792781049630003464398788483713357254100665653061L
L925396928476627292985302435524678622538169191568542680586818177792216409925445460981327017182945653950905269323868550329356602228970732672227369L
L9295286313640402289896643038854408287611349336981158716641885847305319185002352098589133118093045266207374408759595548163696455285069595975474034013446277443837824L
tp80
btp81
a(g1
(g2
g3
Ntp82
Rp83
(L70501040757116239093750543042274614280567008825058018407252789240819846246803878238411755168660789650110384719860426833610633445222035694380275202721996559188977252651234239391045351684752807233678246407541324809630462609133441697699034059765088540073242725964926848067812893190675287818739674900575293737211L
I65537
tp84
bg1
(g7
g3
Ntp85
Rp86
(L70501040757116239093750543042274614280567008825058018407252789240819846246803878238411755168660789650110384719860426833610633445222035694380275202721996559188977252651234239391045351684752807233678246407541324809630462609133441697699034059765088540073242725964926848067812893190675287818739674900575293737211L
I65537
L57706140490623409886111057576891483190448999105888082784080158891088988086383271134521289996680817541249544036612491823479488073943660233969225026587024689299714026474375804330953531072176904538662117849702659122753662057011219399687639835381793226267716402817867350772938729994856497332699200148354983293673L
L39747632018379638508580271489217013342071933619963154801062770724347421370179824667996741408784450467097274794068283513405876571596394927260273274634304837301651941L
L1773716751843630996137113917379758588466595196943988509124304499409860392609516351721308089619382388917693989361824308878622155242856559710853471L
L36091701386724352777928549919157350000356420003820549903969428308210487180036180877486276217943358146489642884480667158998280496500142907461916204589969735614752053L
L1497660312445961951771357749760344553610570798377855137241735784119557571232018651375589754722794196492644342727242195712594629059522917507964943L
L4759187538231708160057010705006627966401989366917674008709356206908570313472453608010907318944928509868150447477854825147829317798415136998247277836396953116547754L
tp87
btp88
a(g1
(g2
g3
Ntp89
Rp90
(L89285636847254655665457930925226894642553081388535789740171121894907050987998840704468062967050749586844288138101723284534116189557982344493465909561572579125398699538752544669540909515577040474211540682905863196970948338101727167952274129462134057868578440319501883627816195892078704748926944016701278347517L
I65537
tp91
bg1
(g7
g3
Ntp92
Rp93
(L89285636847254655665457930925226894642553081388535789740171121894907050987998840704468062967050749586844288138101723284534116189557982344493465909561572579125398699538752544669540909515577040474211540682905863196970948338101727167952274129462134057868578440319501883627816195892078704748926944016701278347517L
I65537
L31799076089106472952491776641068723741578520113673403853172012087050452066937469534507057962890146727902292284227723624583224834528172877959351008640924704862730644956243313269884652439714364200720096398378571550726400663844161977474443813118425794226855124550884771443757032929612632029649837270714506514561L
L31779974430691793526492451629364052984456383269962561497025088704214402342251722359273613817893661274776869152222190852388152119297659115566970772372831901224064029L
L2809493665326119840275270190261335448839234559962819832670229466711109690365429312591643982822486160516164206188018832506471562677726472792664673L
L10689499921421027762912547167519129407653028255841047128193555631104601755231349736604170819562199507777000832988784581992529797180182149679697021624223056145128209L
L1760922399417138786929326542340431759646752796429387220449441015061602648139840698740054623836905320895409876826605575215043904666264405189500385L
L3881982769584362726218761898546041588727619724921190431954948363783061863359065129953150028607512536057888856277252221750640109179778260681063990433206991011791793L
tp94
btp95
a(g1
(g2
g3
Ntp96
Rp97
(L94728319846704675444762547942973096831632213668908944867191784443344123510225079082680033393668693393689186231978880982342991852146154131354604149400762704012027150592809809287195915352837510006010042738348319179316638487027271920750597519430507869796944424809888875344242175191389332218171401473643236784437L
I65537
tp98
bg1
(g7
g3
Ntp99
Rp100
(L94728319846704675444762547942973096831632213668908944867191784443344123510225079082680033393668693393689186231978880982342991852146154131354604149400762704012027150592809809287195915352837510006010042738348319179316638487027271920750597519430507869796944424809888875344242175191389332218171401473643236784437L
I65537
L44326615266778953596663458165115216755964799984503877385937263736881978663778819601576950182090083774116396450495084350603667106058655549479708318423205097859594687065213668904548452874215293037341693280737417815989741036617003032287959513977953516779006069495639943155237097205157826776056535186690255842753L
L45168148085744043419855897785228866635310012798548784327989322326698188787362015198472451590120155667342607314192486042840342433577638420880857726847897383840586277L
L2097237187295770439725302695616476291833850456843259143448461757873672992377669429511141574642388875057907056139225305866385637198878045704048081L
L38727567286176194941003442457658734363357191192395948684840258177545884375840309413500221245281776511883604531777532931310321223546922473505609920915468358221618689L
L270310855258668735284795334999654778783290886201001113641288988949126688231291845386279702778648074028627201477150863766320696361123073257275953L
L28896446523980194234714897020984342794603333026350992113436294765495948303152726187071521635458817245068843793321479498776405902865003746375948529156336349909443245L
tp101
btp102
a(g1
(g2
g3
Ntp103
Rp104
(L63486745161810167833909306937109275322620811892625963511018956201037894755090529420670078257001108857758392887260636147811100882668023096130756862245794368838901007241050954511339067991788868502353054637397199296442957868076694559766032258740873257974762929754654658835929743515491744616725205575910928723407L
I65537
tp105
bg1
(g7
g3
Ntp106
Rp107
(L63486745161810167833909306937109275322620811892625963511018956201037894755090529420670078257001108857758392887260636147811100882668023096130756862245794368838901007241050954511339067991788868502353054637397199296442957868076694559766032258740873257974762929754654658835929743515491744616725205575910928723407L
I65537
L33469140261845084435686200996034689753826831421795734307424888791764335623973904687186645769250779117682415646960571568837046790304411217652892999876358651356935075848774030640331713539928838553588648768481091826746009432676036710004338009717329097128023470024379394430658701946806572092740778571786536823473L
L30613466816480595532926969899144243293035656381245492416091721089871053236227195276546757217847727264443758485214461698083366050367332861695289492767002547894427907L
L2073817563440166121981709439723241556799223278309631307163622679435192481555938511939007036784613137404042901681552011747873051471706237874706501L
L7550484117698282591425172672685163321309006358949175876431734435458988121372299379741242102465640226169475443718915404852518864734998067907329590324333264936837705L
L416902610713401416865419867683197392477985972683055258432347052833646046424149562762964702528911577968144181602063685471996390636430255947010973L
L21293764250055667945105388844132309128956939108069763905337486931643849642109371221374706884857148883280500697000887382533171041792010153998015203922613121890369015L
tp108
btp109
a(g1
(g2
g3
Ntp110
Rp111
(L75598813889109376980663853009605445993941107810639558282583828249512737737819027272209554902155494862509830285173503493806493959980192311758333051568840396727568835021479607447151830925240355900310395992068728422012839685493191544292872857693531230800721934414281366024837138827358903002817642917702083569187L
I65537
tp112
bg1
(g7
g3
Ntp113
Rp114
(L75598813889109376980663853009605445993941107810639558282583828249512737737819027272209554902155494862509830285173503493806493959980192311758333051568840396727568835021479607447151830925240355900310395992068728422012839685493191544292872857693531230800721934414281366024837138827358903002817642917702083569187L
I65537
L31972356448486268852298091366208922389094186264056893616100461839750744646217098416220337110686236036196117704718769494145819813063933202694748253129418949601409934275626665035884316127765260617028711650763035555221201212260829728796471904503153014979107369656288836233218018146726451056119219734587426322753L
L33372688948157102950351104609877660584238341849929116128279847225359755331167059352118061494933296490938208178589041504481456049550391917648657562801957160541186081L
L2265289860416958489676206443877237105124060552700294386108074204619573572995818076510701077469370171932365576228790385461046381034136366625945027L
L20346865622495893351651419608723037123524290481676269788633563568422413961082170232579785207639192027227642159267014532166036580433724611341492748170923329779272353L
L1739209757947420546028009820964812844935339652871213400457756225549583952155737646761202772708947601219476611671331397916344519195181951561982939L
L901111431296503089571146816721426586782959896807108963155140278052955121078351997471970321433308116328073929852312632087694967725371980195635869838678406043608256L
tp115
btp116
a(g1
(clib.CryptoLib.rsa.key
PublicKey
p117
g3
Ntp118
Rp119
(L84174237052288432083151939718671529110158124480729549366433509383104473404155497053264295948185704588313443629675978017807248905367241895445508817667492231697795507411501165459636377902269525346950301913344300264978495586559842653719217830867211763062195712540652156987002606037900962268420185281843454233417L
I65537
tp120
bg1
(clib.CryptoLib.rsa.key
PrivateKey
p121
g3
Ntp122
Rp123
(L84174237052288432083151939718671529110158124480729549366433509383104473404155497053264295948185704588313443629675978017807248905367241895445508817667492231697795507411501165459636377902269525346950301913344300264978495586559842653719217830867211763062195712540652156987002606037900962268420185281843454233417L
I65537
L8252124342904819813757895733592696866392510334447523607722893903999973169685812114793522765263792239191813408008730316682356138013405086870582935351554225733010863455177515246125921522778718404827771659136845462629623163356278648767308484486735940470427788808324000992781862999656415278400738983881070128373L
L49708767050084669753459481060874862604333179961457186677772121985621443790020463186318086360847240735454109642588112296995379943655137214927067498531806215850250183L
L1693347915217403420442498300372690056635408860778265038133119156910844826454784886685511241685497439978250802926712595375574377026115843371609199L
L22404859390763249154636916719672590543805755571379279449390584117876494623089467965586614477517534279637135430862112228831751959284512537829480245344324943314471827L
L1355463808723392639828088878611338943972008923759521856363022887400139151865633385042371785996020502941224607802239082554932813811893085482622313L
L1556640028422208827896877792882606224061826032017046385104811175936309514504216784317099533324883118241070616259720289689673348079033741062147514752445420060470608L
tp124
btp125
a(g1
(g117
g3
Ntp126
Rp127
(L95425222176520001662415156550352127915936729016265562345682252168109794060538513559006099380584622939475222612404325336264574658420024863436858215916596420933113457812960143048408536237921800479258090368990733662951601591271173875978554082816051200202197101875698197276863983393476850130412638862989947691521L
I65537
tp128
bg1
(g121
g3
Ntp129
Rp130
(L95425222176520001662415156550352127915936729016265562345682252168109794060538513559006099380584622939475222612404325336264574658420024863436858215916596420933113457812960143048408536237921800479258090368990733662951601591271173875978554082816051200202197101875698197276863983393476850130412638862989947691521L
I65537
L56525360485140958306553836648629323249837187499282014676010966498591487483775052792684678640366138931189520683524548177046966641965970142415464101669888052343240502107332361751806586731518709557204976194349454948328468243085813515243455847057624459040077434089716038927587793598140445813317298114562403775125L
L50718908229324990203397872620891256464360647675790135160321427409066378738893019925621569589249787558073571562046606587339403392025708232745995864936671191947079679L
L1881452608267037230048791044185000353997253434873263241018049425520617708403554354537410636734825595233773182907196041600405448097170441614732799L
L8426967845783600383368165081845139259356136114586856001354044632151666968091400185698052569652882138637153375026710089408101736969466666865604909795923106170739439L
L116354538982655628017574043701753306296456477585811616580651453707601256880229577169234559267074296008094400267373629500990940707353583469864535L
L44257633779705867608332726749763337809054886620395041785245380293525084258084310557847866763039861691605406155454925585347272507515384357503542973764661901387374661L
tp131
btp132
a.