(lp0
(ccopy_reg
_reconstructor
p1
(clib.CryptoLib.rsa.key
PublicKey
p2
c__builtin__
object
p3
Ntp4
Rp5
(L96391341176084839160142873258083985309468242239292049754812561499834558114685311634006405109030260998100709872923470136094601767296811275036956928443411982558613841830148627740190429591371545849535236233655556747029513855592170175380284082302844165521766427770867004858049175627163058101656689298920849438643L
I65537
tp6
bg1
(clib.CryptoLib.rsa.key
PrivateKey
p7
g3
Ntp8
Rp9
(L96391341176084839160142873258083985309468242239292049754812561499834558114685311634006405109030260998100709872923470136094601767296811275036956928443411982558613841830148627740190429591371545849535236233655556747029513855592170175380284082302844165521766427770867004858049175627163058101656689298920849438643L
I65537
L44429705879841476133323098637108824453795820094977405724909255196103000313233957822910195546539910649413708955876408530618516718594108289917396176918385356228064534777790954795672241976891815850146020632996589939457770520561525976606347052558241062390706352002780145065063756958401161411925431618229100355585L
L54545761655124865647010412292870190500302842193706991767656677183546868566321879857167147160025665411153328676177353608429919027715311575454670771827984147142540939L
L1767164638483480738264974037809551554043586638730409758888120392724571505717670621422352659828303705795306835170598203568888599472942028720470137L
L445274920815597343808086585847468634781299427401822491046223084565933361047686127280535021905392846712040997326012545287547594180809187067889113980316027873129063L
L127298842764858210863312974846253152976788264971638379414846825061456918664161054118054334300462666815076118358185362757659384441029636962163961L
L20405260494485625375430636627194480845668426189481694638447267333535893024726142306300908893222095154596764016128759288836547631366287219045710035115202349976024219L
tp10
btp11
a(g1
(g2
g3
Ntp12
Rp13
(L79757600201755899466295105072354456376113907368613700474158211013416225816755756105187495955023759826703579502865736234834980870710145920056907435572851872458568320571314463624536485329670541760400742262102389361352541850279981111997768568757434313742091939520133220775411738615096906734283768405023364417043L
I65537
tp14
bg1
(g7
g3
Ntp15
Rp16
(L79757600201755899466295105072354456376113907368613700474158211013416225816755756105187495955023759826703579502865736234834980870710145920056907435572851872458568320571314463624536485329670541760400742262102389361352541850279981111997768568757434313742091939520133220775411738615096906734283768405023364417043L
I65537
L20041322613523904853913785958031847469396582488461943931038000197887275992955640196228507307129274712393831686729525982502440834625550193196166302393713631788719410971290577638912417514521589524655619327417406617246666381358755602547876255742087802861398699555881229275000641891448204473845039198709796371105L
L41840959093339227534306017193570943584574067896506413347832857935410430634092609621169498984477259738651408414308630923643982366307891284290867673637718785037411357L
L1906208699084355403388029083638894163687141309824464853189106553413218958601300391294096642983525000922251163170119012945196074404795672142601199L
L3214508278300242773322410189200447090167850708132959873145527560077384046304473647597363739366205392131312714436790770107686516232971185992714325293588569550992053L
L1703188470517152133240655187918927102904129479216186099580305971408789882948812838747706137345106939271011205300100081496434785371952029748909751L
L4801528625547235673439360154895655758999728187631132877446752073508535842645364863043782038498227314301075201992035093822482560166980503354689322607037866699054678L
tp17
btp18
a(g1
(g2
g3
Ntp19
Rp20
(L89490576384331895747487271953083285804345790865672617202246426476327688169476645428562493646857680845220875011516813569689933010901811132037903358604992790376441960832720780077427898283918980424505146770294635528080068571053008306498452119502167812650120777965478577226623132744919257766062731551473850726433L
I65537
tp21
bg1
(g7
g3
Ntp22
Rp23
(L89490576384331895747487271953083285804345790865672617202246426476327688169476645428562493646857680845220875011516813569689933010901811132037903358604992790376441960832720780077427898283918980424505146770294635528080068571053008306498452119502167812650120777965478577226623132744919257766062731551473850726433L
I65537
L54502446950641977613641255668330351856121853252551335017020368133667139869028042565812340684203998859516700569291882399569769537774614180144969609128457769540298632085082006633455799754214373182710994300464459099956447293405824616656946774986577958921804407861834622480821059818261671283690035563772127112929L
L34622136227707640248297547781179155075946697201391618400357012490836405697961446771159319413831190728319464329988855487532456397338397460337563567088871165398249797L
L2584779165437913230502478396378296115720554298421347024659114241158256697235239951802303937417409809262600421470117629407978233632840579688268589L
L9144592796460308721760693228133896491518338168608403108323235519117112205803021859541447107029890161392952493280239994036755119061410501524989324294800797611176953L
L2534217087678915950164590221695949111427502272686629736934424608474965043881324184858279132379505734076451318820855520966929236951312563099771093L
L14683188826270007256640015282496996443808574473026940969792362618421937565235408855754684461990110220732049225768926805573062046173066272397741437768095643432714L
tp24
btp25
a(g1
(g2
g3
Ntp26
Rp27
(L99528159277373896470544430704404868923615872725405935499705475271499356671788658002302381944329140632535618686013984539744966503939672149953886731226867821278998722935508709916406105132845031198124214301141013775854309199532255673052610767486591276585170970122357025097230682787054308458155591181884854600923L
I65537
tp28
bg1
(g7
g3
Ntp29
Rp30
(L99528159277373896470544430704404868923615872725405935499705475271499356671788658002302381944329140632535618686013984539744966503939672149953886731226867821278998722935508709916406105132845031198124214301141013775854309199532255673052610767486591276585170970122357025097230682787054308458155591181884854600923L
I65537
L1427536654420120888693589344372500675773973791322177996699927472347061892846504089631265377232241210226032341499506316544246280936010067915172398493667952012384405936772057399739454865639346287113519612236540506292461882689685914635433414333708175729458529113228351875426356570683350741421441966065175425633L
L50291211894645342538107290707849842623999062154340163705355030770937673786444368862296837972804477433689903923861172678372874844119556555249470446453694208722568397L
L1979036804399835126315266028327578876151273907560638954238318770198063148946851463211381753893530905783222581105174249316923308028838725704511559L
L28499402147721643903791242650698617654343365875002507588891473332649560809233828450750602949051459288795784699151320507531473806182098828225431174921704521381013285L
L896344804690484856713246586185628328742515882602536675140089049785451095567227550582166480016199671580380485450125688427517807531928832492897395L
L24655362246450912365026044227477014376241945979562184389350314313838108750472706521532616073991815098068780187412385560813155094240120486514199456096754208451038542L
tp31
btp32
a(g1
(g2
g3
Ntp33
Rp34
(L88144316127889327249319908624207746171937133080042364731002664090291897964460277125301827122801588865945868794296972262942020515334570251211861814844077584021525782604637253449166605397716902114007206742887646199515394140676590250099711347087868333822631874475514481835262949570813745396522846859998723347227L
I65537
tp35
bg1
(g7
g3
Ntp36
Rp37
(L88144316127889327249319908624207746171937133080042364731002664090291897964460277125301827122801588865945868794296972262942020515334570251211861814844077584021525782604637253449166605397716902114007206742887646199515394140676590250099711347087868333822631874475514481835262949570813745396522846859998723347227L
I65537
L20441971112925368644619272947790309810752284750348107199696499557629225584964703175724590238177843800807349433213599667736633807048997257246579599008488638943288504474525035438423138992457802289111192414973882221980764859355668883957834982420152508609006156663096041928753226576410362574284405260990561241145L
L35765235559518183539351445446040465568610552699379223971922983507763126432989992337805635974332859431980268614542994693567172467579608797013191179754467769645683079L
L2464524970937358365549009917017204432444738448642195041380463022649875630478083325822814597863803386524249958985322355837933951746409629011076813L
L6875054359809116624635694489055308989324438758362138388975475627978086680849106969676295863476286115081365091566788945932209877574010278541467910989926071715158085L
L810051305353642012180771512618331639826237254103811944189946960814516547234819917322264510926410863315667002861022458566991703229769593031838589L
L11507106159460004129458298596414173567461655742926040824894963222951037838845252608067230737984626254412790817930143659291234319562826093135836452372928867844787832L
tp38
btp39
a(g1
(g2
g3
Ntp40
Rp41
(L157673221278285179740482685269397051612026100280512443904617452570079642334882101839663230295016504775591564216908518798167148679381654228566364483171134921385394273721991456687241434584253197102442689992809475207418800506662388344058736555501749857385772984221460133933469740213128620289862417453921802682261L
I65537
tp42
bg1
(g7
g3
Ntp43
Rp44
(L157673221278285179740482685269397051612026100280512443904617452570079642334882101839663230295016504775591564216908518798167148679381654228566364483171134921385394273721991456687241434584253197102442689992809475207418800506662388344058736555501749857385772984221460133933469740213128620289862417453921802682261L
I65537
L74475979033074385828560690986762517809815523449098115774468435567074864704191683240743625082205943540796991957193953154951588484656583125555035739896396457670445998941260288063924601118292099383994981446549608477816453954393416568114466601043857011572290144314536713454600237877725950094406244451906748537473L
L53477694727356836981956782568749290379486030645244880797993270322323810581045400977911181223296529287665130797453008268040120836930206028823010101956814023609884301L
L2948392261150077086126472024743952927693345791635040673821996604203890635185816652108025321209338861024240526084661689356934202182999227157169961L
L30527092137954844260982119912102777093656284121477275974391965394028656753398683125328214607698650490270232208729641154090803067433601442609482138704950935155246373L
L1189218319899310888424358171751554872677203757512255140940394864512041214130977575748409926314107503430348872644795262164291906869484437351002193L
L7681226406524899439084769949364366329937774157435697192711973819444569645498469177905246331706713480738895682123098158368780411662329421069023948011454332949056651L
tp45
btp46
a(g1
(g2
g3
Ntp47
Rp48
(L117982819004809808473682607663169048333484639551357180985411837178669766897398459616843804828658641076684769608246109751113220402148229972268499712882733833647931793350825433565516601895811743396255914595317081481603547377244867041592427119322374474842732232385965054869766693360360101530099000879625325617013L
I65537
tp49
bg1
(g7
g3
Ntp50
Rp51
(L117982819004809808473682607663169048333484639551357180985411837178669766897398459616843804828658641076684769608246109751113220402148229972268499712882733833647931793350825433565516601895811743396255914595317081481603547377244867041592427119322374474842732232385965054869766693360360101530099000879625325617013L
I65537
L53112701361046489454797411750407806780639902966014479005944816398100220223292899493045802735247507326936398641257380960176592482484386359946862771389796920054927398507607907022420777477432338729302540966142630334550965674657141733312850139681513930190228070859892956054222065947984256557349055143336950358465L
L53574422111123450317535983502281936471868379277982520919771890542059267740885421617082468259671657324821561049944269389343261266076160660255317157016962111873903377L
L2202222895845543642431646166281365384027978972590641855455657263524655663919064318255021268869822002120416908184700189822757734546472884982892069L
L4709435063890355025090022444674706440856824893120791354788987311179996665322503531379405521216540547298427044398262599020500299889600707443594948526400639737942801L
L2053732379393135730017201739334795452050323006039257959957563828556386542981909043793740786285392696119682631100485316715554682393324836113712825L
L36308243301850789648968342055544174027980832159052257840070500048377021672546746022150745083919843302076012752355590311698427352379787057964733538389567041470072153L
tp52
btp53
a(g1
(g2
g3
Ntp54
Rp55
(L61941649137509963893758937423737600925673361348117681015260618698307591981526123207940044388414783750523418062155989969437938911043058433303473570859252993774398929174915971401490696208459646980971770409985384769260110318684593786503335880575075483904874198971623558819527336974441631158225827480619312266209L
I65537
tp56
bg1
(g7
g3
Ntp57
Rp58
(L61941649137509963893758937423737600925673361348117681015260618698307591981526123207940044388414783750523418062155989969437938911043058433303473570859252993774398929174915971401490696208459646980971770409985384769260110318684593786503335880575075483904874198971623558819527336974441631158225827480619312266209L
I65537
L14661958940296200159968909108662914127286431398955545502383965971387852272905606746185725751826884665484684749045972082882810417428490249413869799209656898138247026947176982141726817871969878048598904629827684774148810481546808597352425690795975843062650003029841418771359135293023512901805439227145296179557L
L30550912625484171672262031310994447915923988227015025239092571266239972394251752534523473222789610411353981647806434060001107685448749224629967402006973275435036007L
L2027489322392322838114981966109759693650617433359211612635672264571823646095689999730593832126530555431493923777627725738053737307864436555904887L
L3164313210885248902319524368509854165636083923355936208904288779700580322751741706278061800758287310561527494778675777031104856322781173028796233041233724364145817L
L657340023531624512325360282220732929042957706700284241654069674803883437329160948994852644231876973950720705745258921166397085773189244975202817L
L10987986351161588341071072056656739071036164344480234801774802838412060877527826163913119907669971559721539133672641547814724698929488660915915142155744626656662578L
tp59
btp60
a(g1
(g2
g3
Ntp61
Rp62
(L104514109708220868147056520576571053431905346001567543147891301336830854071904727112656293657727929342943935295759894940644780914939938329206663473412760759964023513517550943234205438680594241425179655727287429529665687783999521193113282553126206229201539274048433937452423821337118254145898578743605329604907L
I65537
tp63
bg1
(g7
g3
Ntp64
Rp65
(L104514109708220868147056520576571053431905346001567543147891301336830854071904727112656293657727929342943935295759894940644780914939938329206663473412760759964023513517550943234205438680594241425179655727287429529665687783999521193113282553126206229201539274048433937452423821337118254145898578743605329604907L
I65537
L31850035843761343647603839494564552529746762444776339651642355773062328417902577321115881058518733003300063715563980984093833474726954976744670676628832956729915285432092830943125819359507802803449945989984584414519597711165198887022974407507442728403043924411564743207220629323573326819221138361128733718913L
L37891840196915332440192381759359540611314720645306148571412616727814800060836602819276249128568767792457006641641502354528939302441794214418037690419830727240392177L
L2758222064832023288042617894520307916362256336164376398267413042821188975046604795001348197769029119736193292700192862522281285680204020998198491L
L20790008541750179652477801292446257248602388344964195650256418088999566360797146103354370297161538555032562442897067941226354569742314057128702859027973103592017057L
L443801999994715741831475436741331568091917436941778676468710355013952999708049614161301505187518685133865728848185509487731451813445098210568123L
L9507499720434107656508601493941909578895587770815844685562365735907102028954198024349012822948195231048571367656400795682931253995118346023470608018736857675584753L
tp66
btp67
a(g1
(g2
g3
Ntp68
Rp69
(L76160025162994454372231000764304311866668415212384713641207742858748717075486225062691671062240368743826484953985995093165948507819081748284414336700748698644601651093938599761864880884879842253935685082820382793743714889099992735692434310800038816166064492764039876724405023329867069737742003131307488806283L
I65537
tp70
bg1
(g7
g3
Ntp71
Rp72
(L76160025162994454372231000764304311866668415212384713641207742858748717075486225062691671062240368743826484953985995093165948507819081748284414336700748698644601651093938599761864880884879842253935685082820382793743714889099992735692434310800038816166064492764039876724405023329867069737742003131307488806283L
I65537
L21008299661208382228988083553063053693724638146535405239876002493255097231955078454664388505167788976469707111984967564799334988241044903573334785193654628249803505306354730002346540282646179887288729091568224349110054386644136414080113609205463533241954512661202875466773532794838571607757858389100309692753L
L31067573382149006321324077612035818976904255274680485027495282553921644377444104077886326543911973062717122749806735649247450563684061787285819517835144281997920853L
L2451431408117472764778069932587653476567839481755846121694498250939112078826390950898353084965026219324402398866717170642007745864787198795657311L
L9010198319643959338227363827638811835970813128551077695311088934531466113524880391357331104874114958009435160376224491283493184978606930298023583250569714328310445L
L1745256673939073260280683993998424339071093497410077793399482725671255800141626088881324415800207414761706625666772811508228899805594414169214013L
L11294411496472612995370267404407211244447428538243501495640720766830415975233075259936988740340146161836518401210560146582320014834915212834796831337441902261835687L
tp73
btp74
a.