(lp0
(ccopy_reg
_reconstructor
p1
(clib.CryptoLib.rsa.key
PublicKey
p2
c__builtin__
object
p3
Ntp4
Rp5
(L86287059521307335159313558100399253497504956829017365054551377677877109795628546231571188849390449324875025839919266885803394348936671395131989200097912502588964125517317984378545307627784781118079920412699652524615418260049543803451993623437558605660393981335855878553468513965809635076180139944733241164973L
I65537
tp6
bg1
(clib.CryptoLib.rsa.key
PrivateKey
p7
g3
Ntp8
Rp9
(L86287059521307335159313558100399253497504956829017365054551377677877109795628546231571188849390449324875025839919266885803394348936671395131989200097912502588964125517317984378545307627784781118079920412699652524615418260049543803451993623437558605660393981335855878553468513965809635076180139944733241164973L
I65537
L82088371256457722088482562833875408655605826454912105778738259234635122778550263216900384246788771754998063858084539295299907393800503351445584337064148218011910932720116927241532223494156344716498487129083387322233363407953314649921599943585849659414141288481785723091101042439129335868045359484709980872193L
L31268550185211556558799370486653827690803249776363646085620066810971335223491355553322896004353721966454629309095643703590652724421550205765319360431339575040879841L
L2759547820740238606573419903008023984420868904379077206097573242706579087115632288289976607153876684415086516065560961871861392610309311693317453L
L1794898847929656160248458607668823714433096199989014397578508191447184996426056725080500095646408929883917717637636932006470170274407920321179355691330080432485313L
L160679226756561187156631679049676053596442250013130882073765041032825820474438146575439076138657451939026353743781079855700185760729669246711009L
L29495657875375132654768996938217232157517315868851914606393476161956531119373235118771379577212098505192867659123925445991275817537971471018518032243513285551799135L
tp10
btp11
a(g1
(g2
g3
Ntp12
Rp13
(L128600673673477383737873084079640748426933276717048719837052137360217946366651224140067392185124548491620538787959099066416144220149257933879771404174295913817295186522516139257664987435252719250518605751333481293689377821183024518972994493719152453532348742529547904771126889159051138700451836168389237527319L
I65537
tp14
bg1
(g7
g3
Ntp15
Rp16
(L128600673673477383737873084079640748426933276717048719837052137360217946366651224140067392185124548491620538787959099066416144220149257933879771404174295913817295186522516139257664987435252719250518605751333481293689377821183024518972994493719152453532348742529547904771126889159051138700451836168389237527319L
I65537
L46491840660172111218112317944045779521176284011429197538783836466051906606421829707655472832783861443336823862903625954508105421487043475096715179875331301970708620807925047686972401188250649200872840072790706092210987133054068841097577887512116437226001881689931066416129474493344488650867044531725404133417L
L47930274998894983493387026563945705273334104862073105575382703351103402552597166949795596807924131245676723378968135230244871980549215110426410369305169640339802587L
L2683078152095773065864352905222084312188134435041287903021721535845268223795186962407312473538362029123212619628684483583487825598677992226526837L
L25915273732179436655449124712657217546738392141653729894009278624995789698205297936524512456914286444154518713608127803892870266120839181499913811073571970115215903L
L979691779905272585961120664997855830914781833628912210191339187829428698222665425796221790618627696673916688095494448817505587173296982681245513L
L36031241665822038915377090984144508281245921500934134352869693035067373683122466884829465856176041918335899361918022976933041020341568210523457123053974913152608566L
tp17
btp18
a.