(lp0
(ccopy_reg
_reconstructor
p1
(clib.CryptoLib.rsa.key
PublicKey
p2
c__builtin__
object
p3
Ntp4
Rp5
(L96391341176084839160142873258083985309468242239292049754812561499834558114685311634006405109030260998100709872923470136094601767296811275036956928443411982558613841830148627740190429591371545849535236233655556747029513855592170175380284082302844165521766427770867004858049175627163058101656689298920849438643L
I65537
tp6
bg1
(clib.CryptoLib.rsa.key
PrivateKey
p7
g3
Ntp8
Rp9
(L96391341176084839160142873258083985309468242239292049754812561499834558114685311634006405109030260998100709872923470136094601767296811275036956928443411982558613841830148627740190429591371545849535236233655556747029513855592170175380284082302844165521766427770867004858049175627163058101656689298920849438643L
I65537
L44429705879841476133323098637108824453795820094977405724909255196103000313233957822910195546539910649413708955876408530618516718594108289917396176918385356228064534777790954795672241976891815850146020632996589939457770520561525976606347052558241062390706352002780145065063756958401161411925431618229100355585L
L54545761655124865647010412292870190500302842193706991767656677183546868566321879857167147160025665411153328676177353608429919027715311575454670771827984147142540939L
L1767164638483480738264974037809551554043586638730409758888120392724571505717670621422352659828303705795306835170598203568888599472942028720470137L
L445274920815597343808086585847468634781299427401822491046223084565933361047686127280535021905392846712040997326012545287547594180809187067889113980316027873129063L
L127298842764858210863312974846253152976788264971638379414846825061456918664161054118054334300462666815076118358185362757659384441029636962163961L
L20405260494485625375430636627194480845668426189481694638447267333535893024726142306300908893222095154596764016128759288836547631366287219045710035115202349976024219L
tp10
btp11
a(g1
(g2
g3
Ntp12
Rp13
(L79757600201755899466295105072354456376113907368613700474158211013416225816755756105187495955023759826703579502865736234834980870710145920056907435572851872458568320571314463624536485329670541760400742262102389361352541850279981111997768568757434313742091939520133220775411738615096906734283768405023364417043L
I65537
tp14
bg1
(g7
g3
Ntp15
Rp16
(L79757600201755899466295105072354456376113907368613700474158211013416225816755756105187495955023759826703579502865736234834980870710145920056907435572851872458568320571314463624536485329670541760400742262102389361352541850279981111997768568757434313742091939520133220775411738615096906734283768405023364417043L
I65537
L20041322613523904853913785958031847469396582488461943931038000197887275992955640196228507307129274712393831686729525982502440834625550193196166302393713631788719410971290577638912417514521589524655619327417406617246666381358755602547876255742087802861398699555881229275000641891448204473845039198709796371105L
L41840959093339227534306017193570943584574067896506413347832857935410430634092609621169498984477259738651408414308630923643982366307891284290867673637718785037411357L
L1906208699084355403388029083638894163687141309824464853189106553413218958601300391294096642983525000922251163170119012945196074404795672142601199L
L3214508278300242773322410189200447090167850708132959873145527560077384046304473647597363739366205392131312714436790770107686516232971185992714325293588569550992053L
L1703188470517152133240655187918927102904129479216186099580305971408789882948812838747706137345106939271011205300100081496434785371952029748909751L
L4801528625547235673439360154895655758999728187631132877446752073508535842645364863043782038498227314301075201992035093822482560166980503354689322607037866699054678L
tp17
btp18
a(g1
(g2
g3
Ntp19
Rp20
(L89490576384331895747487271953083285804345790865672617202246426476327688169476645428562493646857680845220875011516813569689933010901811132037903358604992790376441960832720780077427898283918980424505146770294635528080068571053008306498452119502167812650120777965478577226623132744919257766062731551473850726433L
I65537
tp21
bg1
(g7
g3
Ntp22
Rp23
(L89490576384331895747487271953083285804345790865672617202246426476327688169476645428562493646857680845220875011516813569689933010901811132037903358604992790376441960832720780077427898283918980424505146770294635528080068571053008306498452119502167812650120777965478577226623132744919257766062731551473850726433L
I65537
L54502446950641977613641255668330351856121853252551335017020368133667139869028042565812340684203998859516700569291882399569769537774614180144969609128457769540298632085082006633455799754214373182710994300464459099956447293405824616656946774986577958921804407861834622480821059818261671283690035563772127112929L
L34622136227707640248297547781179155075946697201391618400357012490836405697961446771159319413831190728319464329988855487532456397338397460337563567088871165398249797L
L2584779165437913230502478396378296115720554298421347024659114241158256697235239951802303937417409809262600421470117629407978233632840579688268589L
L9144592796460308721760693228133896491518338168608403108323235519117112205803021859541447107029890161392952493280239994036755119061410501524989324294800797611176953L
L2534217087678915950164590221695949111427502272686629736934424608474965043881324184858279132379505734076451318820855520966929236951312563099771093L
L14683188826270007256640015282496996443808574473026940969792362618421937565235408855754684461990110220732049225768926805573062046173066272397741437768095643432714L
tp24
btp25
a(g1
(g2
g3
Ntp26
Rp27
(L99528159277373896470544430704404868923615872725405935499705475271499356671788658002302381944329140632535618686013984539744966503939672149953886731226867821278998722935508709916406105132845031198124214301141013775854309199532255673052610767486591276585170970122357025097230682787054308458155591181884854600923L
I65537
tp28
bg1
(g7
g3
Ntp29
Rp30
(L99528159277373896470544430704404868923615872725405935499705475271499356671788658002302381944329140632535618686013984539744966503939672149953886731226867821278998722935508709916406105132845031198124214301141013775854309199532255673052610767486591276585170970122357025097230682787054308458155591181884854600923L
I65537
L1427536654420120888693589344372500675773973791322177996699927472347061892846504089631265377232241210226032341499506316544246280936010067915172398493667952012384405936772057399739454865639346287113519612236540506292461882689685914635433414333708175729458529113228351875426356570683350741421441966065175425633L
L50291211894645342538107290707849842623999062154340163705355030770937673786444368862296837972804477433689903923861172678372874844119556555249470446453694208722568397L
L1979036804399835126315266028327578876151273907560638954238318770198063148946851463211381753893530905783222581105174249316923308028838725704511559L
L28499402147721643903791242650698617654343365875002507588891473332649560809233828450750602949051459288795784699151320507531473806182098828225431174921704521381013285L
L896344804690484856713246586185628328742515882602536675140089049785451095567227550582166480016199671580380485450125688427517807531928832492897395L
L24655362246450912365026044227477014376241945979562184389350314313838108750472706521532616073991815098068780187412385560813155094240120486514199456096754208451038542L
tp31
btp32
a(g1
(g2
g3
Ntp33
Rp34
(L88144316127889327249319908624207746171937133080042364731002664090291897964460277125301827122801588865945868794296972262942020515334570251211861814844077584021525782604637253449166605397716902114007206742887646199515394140676590250099711347087868333822631874475514481835262949570813745396522846859998723347227L
I65537
tp35
bg1
(g7
g3
Ntp36
Rp37
(L88144316127889327249319908624207746171937133080042364731002664090291897964460277125301827122801588865945868794296972262942020515334570251211861814844077584021525782604637253449166605397716902114007206742887646199515394140676590250099711347087868333822631874475514481835262949570813745396522846859998723347227L
I65537
L20441971112925368644619272947790309810752284750348107199696499557629225584964703175724590238177843800807349433213599667736633807048997257246579599008488638943288504474525035438423138992457802289111192414973882221980764859355668883957834982420152508609006156663096041928753226576410362574284405260990561241145L
L35765235559518183539351445446040465568610552699379223971922983507763126432989992337805635974332859431980268614542994693567172467579608797013191179754467769645683079L
L2464524970937358365549009917017204432444738448642195041380463022649875630478083325822814597863803386524249958985322355837933951746409629011076813L
L6875054359809116624635694489055308989324438758362138388975475627978086680849106969676295863476286115081365091566788945932209877574010278541467910989926071715158085L
L810051305353642012180771512618331639826237254103811944189946960814516547234819917322264510926410863315667002861022458566991703229769593031838589L
L11507106159460004129458298596414173567461655742926040824894963222951037838845252608067230737984626254412790817930143659291234319562826093135836452372928867844787832L
tp38
btp39
a.