(lp0
(ccopy_reg
_reconstructor
p1
(clib.CryptoLib.rsa.key
PublicKey
p2
c__builtin__
object
p3
Ntp4
Rp5
(L86287059521307335159313558100399253497504956829017365054551377677877109795628546231571188849390449324875025839919266885803394348936671395131989200097912502588964125517317984378545307627784781118079920412699652524615418260049543803451993623437558605660393981335855878553468513965809635076180139944733241164973L
I65537
tp6
bg1
(clib.CryptoLib.rsa.key
PrivateKey
p7
g3
Ntp8
Rp9
(L86287059521307335159313558100399253497504956829017365054551377677877109795628546231571188849390449324875025839919266885803394348936671395131989200097912502588964125517317984378545307627784781118079920412699652524615418260049543803451993623437558605660393981335855878553468513965809635076180139944733241164973L
I65537
L82088371256457722088482562833875408655605826454912105778738259234635122778550263216900384246788771754998063858084539295299907393800503351445584337064148218011910932720116927241532223494156344716498487129083387322233363407953314649921599943585849659414141288481785723091101042439129335868045359484709980872193L
L31268550185211556558799370486653827690803249776363646085620066810971335223491355553322896004353721966454629309095643703590652724421550205765319360431339575040879841L
L2759547820740238606573419903008023984420868904379077206097573242706579087115632288289976607153876684415086516065560961871861392610309311693317453L
L1794898847929656160248458607668823714433096199989014397578508191447184996426056725080500095646408929883917717637636932006470170274407920321179355691330080432485313L
L160679226756561187156631679049676053596442250013130882073765041032825820474438146575439076138657451939026353743781079855700185760729669246711009L
L29495657875375132654768996938217232157517315868851914606393476161956531119373235118771379577212098505192867659123925445991275817537971471018518032243513285551799135L
tp10
btp11
a(g1
(g2
g3
Ntp12
Rp13
(L128600673673477383737873084079640748426933276717048719837052137360217946366651224140067392185124548491620538787959099066416144220149257933879771404174295913817295186522516139257664987435252719250518605751333481293689377821183024518972994493719152453532348742529547904771126889159051138700451836168389237527319L
I65537
tp14
bg1
(g7
g3
Ntp15
Rp16
(L128600673673477383737873084079640748426933276717048719837052137360217946366651224140067392185124548491620538787959099066416144220149257933879771404174295913817295186522516139257664987435252719250518605751333481293689377821183024518972994493719152453532348742529547904771126889159051138700451836168389237527319L
I65537
L46491840660172111218112317944045779521176284011429197538783836466051906606421829707655472832783861443336823862903625954508105421487043475096715179875331301970708620807925047686972401188250649200872840072790706092210987133054068841097577887512116437226001881689931066416129474493344488650867044531725404133417L
L47930274998894983493387026563945705273334104862073105575382703351103402552597166949795596807924131245676723378968135230244871980549215110426410369305169640339802587L
L2683078152095773065864352905222084312188134435041287903021721535845268223795186962407312473538362029123212619628684483583487825598677992226526837L
L25915273732179436655449124712657217546738392141653729894009278624995789698205297936524512456914286444154518713608127803892870266120839181499913811073571970115215903L
L979691779905272585961120664997855830914781833628912210191339187829428698222665425796221790618627696673916688095494448817505587173296982681245513L
L36031241665822038915377090984144508281245921500934134352869693035067373683122466884829465856176041918335899361918022976933041020341568210523457123053974913152608566L
tp17
btp18
a(g1
(g2
g3
Ntp19
Rp20
(L157901683766736355914293556708034238235258895476388179339936611738896817868997565511489838743001093142344399076060074473754996636869245038079965993592147692445860690697173855194298245793481099263904101798500982031618491546233439253818790955545972737792615598595817176790592900138631209874306401017159257704089L
I65537
tp21
bg1
(g7
g3
Ntp22
Rp23
(L157901683766736355914293556708034238235258895476388179339936611738896817868997565511489838743001093142344399076060074473754996636869245038079965993592147692445860690697173855194298245793481099263904101798500982031618491546233439253818790955545972737792615598595817176790592900138631209874306401017159257704089L
I65537
L74253810702458882050179488291879506052648792280495098937661266722325724856258845713087345167165886286432275434107381100853796196830389899271960423065577471788794931157821537714859518231442162217210900797161567839878550864826349595747017248227756188399548531557051530468833718553918867283127310466297534907053L
L55487447644792716413108921029496952271285824466327212811174627244964693817210031581890110995757303713631520587265846450986553315960312546375544945755965512083152131L
L2845718995358310047114359479063127878263200851135449915647466840865558203407557861256921263800718655065530571484981080752265234146916414313485619L
L16575030327023010043478238964164698332468110923253854238130608321630129710843047260000651585576708344931325488455429390587969456437661759317546476083197839846985203L
L2509722938381600659370475663066202728775115522449576112341241374112156470371750870848357296281760494745450684365479370224456082342152094708411359L
L6104418438892899694116525399603696428154666195110550376294127315259081995431413814077824895117202574676010051897767829117849465718043970977070303540474067608768033L
tp24
btp25
a(g1
(g2
g3
Ntp26
Rp27
(L147219243779861229597186266643370514733386942779549491235499033505402455797398569686435120873690125160912804728904184653764933619957640156469376958953844059490609355938568004693984756276319727177884735178563983751618690269074666371129816189061379564279615008900980467339685600060890846274131433773366378060901L
I65537
tp28
bg1
(g7
g3
Ntp29
Rp30
(L147219243779861229597186266643370514733386942779549491235499033505402455797398569686435120873690125160912804728904184653764933619957640156469376958953844059490609355938568004693984756276319727177884735178563983751618690269074666371129816189061379564279615008900980467339685600060890846274131433773366378060901L
I65537
L95505948831111891565893637374453221911358152787209151614637180653915968242095268150639724111048863410613375739720925808924270530938538976340876579996934259101739836265588565815146785893002131885514751639961316655501007140671399584826317341726582363111858029076108934392318908654839192510306652182994439913473L
L55593718917455828949458051084841023650421667787397324079528531385865621668876381156196473650159661247291851586983077992480920077929799630712006957395063989715200101L
L2648127282120642098726284249560855596890315201855054093907083821714058688382755691865727918898634142581553924061349034239085407949140346024780801L
L28632839286812091648381937780455680185182919182992954773340342835322156855078098929555148566267745025574700680028484894917389815073049677816395056836794328529637673L
L2416637876147387928050133640504381517903107734448434857384300001664318202462667690298693186650129099585235471417079863890187528855794220288540673L
L12672490782882086185370178024178624828269550689928206627772692026299938936865511469546383789344060971259880696158071198752193586809902139302129437149971001805055027L
tp31
btp32
a(g1
(g2
g3
Ntp33
Rp34
(L94494896959814816558725340298997702865986398190978195316442315043774535881564287689008091645498015297060314374791524154306769801596673542186289806116886306406060862538097142502736127258790027218760943113159667155293080690259304161570470044532601856528354847338043362759627839779341750939466890112536613208429L
I65537
tp35
bg1
(g7
g3
Ntp36
Rp37
(L94494896959814816558725340298997702865986398190978195316442315043774535881564287689008091645498015297060314374791524154306769801596673542186289806116886306406060862538097142502736127258790027218760943113159667155293080690259304161570470044532601856528354847338043362759627839779341750939466890112536613208429L
I65537
L25308893088417679708489950688440219698897710414670190310656758105549146716039762909580222357651809855643372418949839380510959157841012110502402374592486789753917281028020941626864011699748557905360318034870452131942101297672212455479388323561453626030380864367947238612031789361363989369203523426159370955453L
L30940688121474568986486059019242718960137441268747609245623489624652219953487433717453169027022616696100942479067391650054981964393298835653185011389377312356191691L
L3054065785118401105207919644391302146811648916691468871933325000615155122019167259581760713659050696949496074693596343175673358747201343627249319L
L12905605238088847793072354690480476150789891122915065479627747873407282674649930391996884638031802645904075005077837223948349588456218883553038214616781638014691793L
L966264156956071332476100734340199429545745766324329875635709505893697322963630210833999243140827566126734533298315763244389994867375983949692763L
L22681574564960117444780687500513803311608443636098417410090788605067289600232432553021157664482666949001089964792593269134376789137964561623415686151007336037930933L
tp38
btp39
a(g1
(g2
g3
Ntp40
Rp41
(L83145526344596427147829535568482965279234931947517769851334697863160980437332681462160498792396394471207191916761415413142192168849330123167961725390997476527723858517749678103438530489914214246600140835808546141365712807077821232348598138358694947865450052553016859147158454151491678732769207535391802410663L
I65537
tp42
bg1
(g7
g3
Ntp43
Rp44
(L83145526344596427147829535568482965279234931947517769851334697863160980437332681462160498792396394471207191916761415413142192168849330123167961725390997476527723858517749678103438530489914214246600140835808546141365712807077821232348598138358694947865450052553016859147158454151491678732769207535391802410663L
I65537
L65296457724700381653790843899456509406772715831894114449982364612679392421817270389161489721028695708440907480840998649367568648951543750541047840953743589988107658812661650717768721599163389869015693512249140285144707649717914594891261014318901205568126199256415277806333938373353066879706885996864118519265L
L33609978325656296723930652368078517670053664291687271684855845821674318131042759225972502144200617628922987415861613957272319971891332007745519538243932688144862437L
L2473834571952907012852423640561860485479607709567157772460682103288031178949487824626158086131549386623790081811922335414831025511912789852166299L
L17610403981334384747593796964576471585088923480053240495998670822138248780107074004923474543078032390246524327834230460331937615618298820726816842756891596780542765L
L1534572389462036432862389652919753363393014203041689916865535044739179693135365946295250481920014781936975479286233587499497085786064399631505389L
L20879924324736878870978419424468840835632792863271328212731140194038018942439980736276316276185857825271225589324638446684556810426972079862673827893933998790705517L
tp45
btp46
a.