(lp0
(ccopy_reg
_reconstructor
p1
(crsa.key
PublicKey
p2
c__builtin__
object
p3
Ntp4
Rp5
(L28659619857795828978160235350366190805891138640135303367726523445565026154008581587202677745107906258251506228040694082940291151399402117224204891788568118960008393004286626718340191124745040819749273173427397844598549136269452663316322346026488971652065608871157063796403214027581684956614494481585976495747582898142002449351811836468076971282394431030505193944448406892111686611469348082314224851924213082465277236910697799843924464530965368986820261036749198665437921934738702579630884269406406116663850396973415284667278900697663545205481129849538200997385659233897227125386650268760503635570675429664276611735757L
I65537
tp6
bg1
(crsa.key
PrivateKey
p7
g3
Ntp8
Rp9
(L28659619857795828978160235350366190805891138640135303367726523445565026154008581587202677745107906258251506228040694082940291151399402117224204891788568118960008393004286626718340191124745040819749273173427397844598549136269452663316322346026488971652065608871157063796403214027581684956614494481585976495747582898142002449351811836468076971282394431030505193944448406892111686611469348082314224851924213082465277236910697799843924464530965368986820261036749198665437921934738702579630884269406406116663850396973415284667278900697663545205481129849538200997385659233897227125386650268760503635570675429664276611735757L
I65537
L25405200354588227787146480197133281274215263123100850651510938547234389648856806800868815533241433298337141680547234733790320192266174313748572305544301156155785092262142477977355896720815160083972931702858914472465213727689303026921612931510579929019130438490774213364237678241792544479520532533381074535459515213944711248278056638973627905668220801895911836680251063183834119085331057197996694653213649465969681122737788568933735304063743143003044858264737604203487836220442737105440926611291612779877958569916860240239688077952498733300683465268817311874428299890692020061175693652960768732216312949941780001703073L
L3131358422270809709021084280318292739374799539942137935093120664850172764923877359034602286070356904909602130791888779864751012029061850617777129055077807808638956298418415785877016031434032574681347918735725132093043141527456643381453441624963771968631186126153640998761183713481190231323622416612003093074447583730638228443061L
L9152455897083906244649829423434287130796373959489652960029208472539452560795856929556404055980566797191132318549849447558172350068309918308090301632311597525799242068935107045000029408584175934445175661512760854942855965014990013007684231384572589918584527695623351631945174441523124292537L
L228818461086941845011245138142489035641941422353523941760546788287035985339891186237037251445609948847400470030095295280105781415188019021446429818953684507920288718023800192235912992272114713828050951108921489503541260734775620872999687686985237407232170382503773238675363669436523185647936703742235421406740154088316927476293L
L8640487034934134355596527095492664892648465038796165803896534131932930548987601875102373855189795814715543092924572915602967506463164364490896059512836273410725619208189023116425787258167318449731563290255215021379822717113118499394211378000135659411519344996809624926683856262439190428361L
L2776299241309579281286462382315879625536489031138656448444551969280381169360720694383915941922874057892131108164705645490249852407631186583588617803584426741566925241118150802090415535632987210639629648189880210800733668790327830285669694641445192937698770470353777611913586020265843203813044650206250028729934997542142939309401L
tp10
btp11
a(g1
(g2
g3
Ntp12
Rp13
(L25418911371553303864072280042052370908018433840851432578048852668597324160822983201579392055519194264773811943106457786541895500834855941504235799824000455343433146729249291949686159404907204432125998115579801595665065592573002993539704791766825620909858036273620567160745642025568899313628623030825508793565205728653650271686009582486744168391451235236697675311163274500443822107588968278864559214426444470774753060691259866940334840350200890376566860563625420475542163148147318764008076540325742505477075183746032038083576774269626420716348461601037444249209365381987673005497283742238942653761803158339211088348183L
I65537
tp14
bg1
(g7
g3
Ntp15
Rp16
(L25418911371553303864072280042052370908018433840851432578048852668597324160822983201579392055519194264773811943106457786541895500834855941504235799824000455343433146729249291949686159404907204432125998115579801595665065592573002993539704791766825620909858036273620567160745642025568899313628623030825508793565205728653650271686009582486744168391451235236697675311163274500443822107588968278864559214426444470774753060691259866940334840350200890376566860563625420475542163148147318764008076540325742505477075183746032038083576774269626420716348461601037444249209365381987673005497283742238942653761803158339211088348183L
I65537
L21321213908433834628008321688080060630721414545970748610410936248197691437947434770545223920472422404491294843164139302100814493673706468351783731143094023698661930543056473092423326591186029907423750986612949224360284812471170797577927763141522163551226268673168894181309938407763149565415637949609019667772756907265500858070678212238111210773002239420184072519107522203074956676020990233071695976797872727593596021048180538571770384763626644637965250135879509544144069627958041704746435680360623300977929774146370495589676582765817121380506171429838773530071095656799128080781650038833806719453821348464367772109633L
L2692296933230507040735645130054082073505816838539843321428904308896186885417560326670116840703733271179900283812798469939587974997227653893683471859483036259579352200010987890751661085692393370041709724708981025730486144787459760406458395490119198657292525150840468410319319045816343329998767407042826685707240432709535180568831L
L9441347667789735120057681774355327354720893141320858888661535647626637238797260598289905030519734759921474976677990010927539685830553209934759298730007632124571807543666644627063032842173326038818258632462241270395655634557310175638401934300478023199400447197658735775491749236070605429993L
L1415307596375443315492385156791174994223452427199516030789761680426193304185510297609577267740742155708835079083853897590043561875039857362179882699893336057723543067195302726889790923055286881985397308935010975456104317564392078757393604245320759756184171940991437167894794997733565167845911999442139020339439513369682866792153L
L6422254284298432818898812174813624265276979664007871725232025560693890292591694424092710472871351688318039496167123833668762976552574303048530899146798605980032823905529075445541755101760637118124387290159249215469709144278268575460578882632944905537776705312596341621853642689534577262753L
L2448423025393224696718231325954628796308444059711562548772858313639621154513515546617354772397954967203757436073887302350074010570894175637828248535143761704583151772837600709391645404950890302383927403005295796984794519099656660757194612020952378066090860495122552387185090390380235938845472259017836908609989974969473293987885L
tp17
btp18
a(g1
(g2
g3
Ntp19
Rp20
(L15821445398556309988152998457457845187332050909160657848403706937784020078258956445885807497552439076248887606639540229241071863671305134464694545948307767789668982657062443901050744275940383550269678244246555491412428215523134666328972883821440355498345213253440082612413634560118989518548473506991461158567341414871121720147613247781171574111558128130884051085698750429772211867302141919276516638477686883195428335378530572389827013553771235146636766013218046948267321937439597192395053972402118364647805315383557572590389637432086764738448272521773945310767457342466800229579599064011556927004917339413500526231249L
I65537
tp21
bg1
(g7
g3
Ntp22
Rp23
(L15821445398556309988152998457457845187332050909160657848403706937784020078258956445885807497552439076248887606639540229241071863671305134464694545948307767789668982657062443901050744275940383550269678244246555491412428215523134666328972883821440355498345213253440082612413634560118989518548473506991461158567341414871121720147613247781171574111558128130884051085698750429772211867302141919276516638477686883195428335378530572389827013553771235146636766013218046948267321937439597192395053972402118364647805315383557572590389637432086764738448272521773945310767457342466800229579599064011556927004917339413500526231249L
I65537
L8887356621487892273126088853820789977057877567936287258054748725263300351877950205209883229548125366632994313911653478176920206741160370785712879969193007971205180700018261589228712021826895952204524694198585438162520901571153388257546237163777793419230063639045778740152822721458420131159228152577025119613918701210100016570563906346217016155804672924482448820340816565530731701147570234167400950544828474252376546081822612206255770213886607105323126237007564197232027635295699976906007663580294142359250877512485244643766627589045897679628666855706645632569001182005655544827189028657865752598638896303836107027233L
L1661548621262449811504235504404580309904841275617014024938235420400886449357234134737506768665107699240132480190073132579256208157374321244035499154996563989596929825016772668354779444745963764479030276325413515418639754780710797823203670114649516541309352556040064857985066533826983445634410811312389504471596158705260050184909L
L9522107987748878846468212960313320573707981480416961023400536203359871444118783563474737625773827715537143439153696259947378856893490969378631612746485892019652091576739151184991475756436564569474947805748733060782535445647868750123765544742803488966661405001265868014469728894677512330261L
L265976571794014998741030786833520790259116069128859943781787811395481937534625376619790095824734804350645129463876241419182704117964111939380448016159863173701289207535452676559958361762514394207081597096753180497382389602887483100587907642595603674792505266725915443568081129840836219664473561827338423965264130200907627546117L
L2471008598923435350136333640783811327907161466613535195766863286548687514688315792056622408739116651023699566194468960936952747595825272994222925034400194784293195011147943058167905582948817517327012791741591820875666880146074794899902049520741854782123235956124458204099770805984107484333L
L1029504538887295927076425215585515208316035667475889599687317088486864628931363791415725796187658116632604246701726060694981746929746439847667472780614622869215026739992539796194514941186906340378317630717767729468438941200403726326995648821018180155384386828598852773363066707908808936396580297038282731417737499051697126387018L
tp24
btp25
a(g1
(g2
g3
Ntp26
Rp27
(L13158681674842558359798772569947499828161865361234771514731672867636269935570399890192107464484670256042446945839106850804638081453107553988145846193233112937076690517990994641212096462335818796821155559127215537022899089836172278853387613511213802167912586448086820350193191457652517524831642177149115259430181349594084610720567448514228851426939173831248531029172268630625199192525146130406189637660981375844582994755135305886606356947306064443794025929021476985166729301746757380267043775320369827978870484305617894035049417096284381822706804242910579186761762026802574962547497845245731732600357051077326562939787L
I65537
tp28
bg1
(g7
g3
Ntp29
Rp30
(L13158681674842558359798772569947499828161865361234771514731672867636269935570399890192107464484670256042446945839106850804638081453107553988145846193233112937076690517990994641212096462335818796821155559127215537022899089836172278853387613511213802167912586448086820350193191457652517524831642177149115259430181349594084610720567448514228851426939173831248531029172268630625199192525146130406189637660981375844582994755135305886606356947306064443794025929021476985166729301746757380267043775320369827978870484305617894035049417096284381822706804242910579186761762026802574962547497845245731732600357051077326562939787L
I65537
L1584575366248950525283914630239798413779291719652483586283509502592206575392855881920077393071288244208416486817556971886876172831040859607160032014846510021810721295878434009924864813475659275592605088310908113251822933869220007395989060314486463016451258560024126618608185711640655939483859795675807634535221074300233043623103635394399981268257863488812301408129807986339932085525624491276100602588727244347171163142593326163247799912769381516945368269534495934670924501055415488792826175798064493334415686332560750967059749305708619815452015026940157608764683773355080679518677612818967386542245566465765745387969L
L2230186626382752520046586997230457156529243028002650625606612321347271858451203414454528941039240536256360736366747915183552698726307557743609491347192047355398454452099169146804170789737697661214412683865390707549607494133187966767534692035255047408205044267869634718264765149018262711022977194921951906419397111961973983816579L
L5900260327623459997589453858203242616246919064723838777738806927096363045701097156144776657801542268596072026474007398070102612188113708797381240636940498447531106244924292799055078974123549146861558531857284636843535339894326474881806754321068144376069723902509474962112031174793829060953L
L2113805982437667856138270664006047075577566705379261316673114997102834826608074866040129609694287263540234674472332884438664311561134116062068614279163349032993359403101211375132134167663099708892010203147328601871598771885671253363732738226558093593778670595041855742472991085365021664412687099149593154569993902738024901242571L
L2560437672118211122441431065311201611396041597887391471060495124992303050486583199120457881011884311440442626805022665076425809704898818655073050089485142375265646300649204071061025772068812086863034997726798221948367259206168194235906191813649969117527853697718379967384319798146642331713L
L1943882470489101580232949969499600006807949316362899986844522044736137551678699146447617503412028487960850143666833787114597770236166069860676232715846718679487023860528232032053208643398421061882302591113126549769023640246552297331943285611855019159040875156767678199729846877359759843350488853543428708364497165405887571432091L
tp31
btp32
a.