(lp0
(ccopy_reg
_reconstructor
p1
(crsa.key
PublicKey
p2
c__builtin__
object
p3
Ntp4
Rp5
(L24125670135800279977011612879895749632685392672195237242529055277165956949350274141392293721530734655603454987192936552136799699775271732161540650853256736890925230908478914468179068151956423563393946953891803486314254215445660320046605059460161459061235885058191035290085225318081873304766861250114462225866441265951686470695733671776474611433706535385789401424506248861179871890317572271046194686344636916032099300052473836786511723748730861832841262210227915038680345278453643840330430008082628092829680081204865303378376166265849196477114776783461039802543857856795119535409143049288281056552451868401955681148153L
I65537
tp6
bg1
(crsa.key
PrivateKey
p7
g3
Ntp8
Rp9
(L24125670135800279977011612879895749632685392672195237242529055277165956949350274141392293721530734655603454987192936552136799699775271732161540650853256736890925230908478914468179068151956423563393946953891803486314254215445660320046605059460161459061235885058191035290085225318081873304766861250114462225866441265951686470695733671776474611433706535385789401424506248861179871890317572271046194686344636916032099300052473836786511723748730861832841262210227915038680345278453643840330430008082628092829680081204865303378376166265849196477114776783461039802543857856795119535409143049288281056552451868401955681148153L
I65537
L16025125842679063551265232340321067076766719773654623611727342330677150890628440940584545070504843691773038169316308558335278766660315990119416323800966969350683692447135268697510889952102888911022251534199276582178496338049963914312049856545459032849439561596551141313273265919201979167538492654103513580287073602562437630318336267285083529479399240548024362131888852553111469090208528073716643197158982817973424133988282604705694653145754136674594659792290107065726035911099829941893675371470087539500337045657402106972483281096365781007880051768011064314197855435083340192639231357099636105001999439803849541803521L
L3234651934227696984838245389009015532333675618798103525772006002741007525796849155737708312170017537306706864955496654689217332163698080055828368299858907442211164859950766053698334652018582492175325229517196405315085591478687089206650597399503484394891346985683393260504827357376859989431926772832289597722196460520194180470929L
L7458505776313304162866519043233992488694712028896331869039977533302826162450540183176522028487300776509173623702220511118238974661125214732832653777026915969912211717248119651101221297225676161626405188763147763712105881574827421401686668465009839898990937619300026929216234712026881978857L
L1217418017450606128263731339019124725277971875631689298666284695112832318099776939369002444847729566126115500114321383105180809544986448001236897210496663121131278399004311999031434495425337683323871585688560149739870625744438954214737379426219585060109403310326480891154799145475954476087216469760307234347249613122222708630177L
L5801262370074472125701829626453038239638874920624845766884551547371890132763420447036379608498102706601692562494784481350263694300179407373028129549475060524074568446628971408744445971376151522634633939563932698402804481640551563329889648976972955564811679587772081003353793497498669589273L
L1390328337579556598033693618408822194676627943259131795451206815796772379535866773409533699355743659394190266635637068218813888191093075578788960757666409906745390648352224871618216388364391972109621543360178059237242670079293829208031694846707122291706686970038754449128953528508111928191078118950697256839648928942335009823354L
tp10
btp11
a(g1
(g2
g3
Ntp12
Rp13
(L15193619194496863301882518596822874648026350957889669126713598984200880536080521322299097067134215841639877375879740084038965700221164773983544671219356025883774734604711897385475850308729525296111187300410893493962686960033588498173560671091170742316671807786406838454855018932426845919023081510243052153445469183154602470532591323401900772717847498230721688364328008671144588216020028169224610595533851236060683261309211993697675310752264178207322606083876925596266544752716256312590725670791298722826796860165660063543500220744582099133426539070114101159073846155773426071039242951755949909099440506017655908072813L
I65537
tp14
bg1
(g7
g3
Ntp15
Rp16
(L15193619194496863301882518596822874648026350957889669126713598984200880536080521322299097067134215841639877375879740084038965700221164773983544671219356025883774734604711897385475850308729525296111187300410893493962686960033588498173560671091170742316671807786406838454855018932426845919023081510243052153445469183154602470532591323401900772717847498230721688364328008671144588216020028169224610595533851236060683261309211993697675310752264178207322606083876925596266544752716256312590725670791298722826796860165660063543500220744582099133426539070114101159073846155773426071039242951755949909099440506017655908072813L
I65537
L9990829900466031768232100018769272059396914636468793063700238769307977885810916984062126556115614564222813304141742815839285088591651981854843181808720996314467738648245406683660859805219935191356205146882027787697361712355577709214483377644292584954101828837987742850786228251109067013751380319511808534118306142728191240738344218756908887221000694539833683893173814520691058267597669155423144731579647277923343941745537284561324028096612173352445407939381474950633146318423957699983587402595820314564996377095579367038678745761461280281908135299424589117102873440846644199285623179608629020131833237103264431928673L
L1751611186423869409933049589746469969434602802328685890493797321585755615821929603146610048712874110661254987509688217985618873755537276791580576075994572622563727372082343067188191194710574945310975015583083325056909472183215687152207344575866362629037299192157554469448029218611889848825410732536182340793711056217697481127333L
L8674082074981784942225841098338101634463283277479601729977044084491789169647560289655595114243761614402129284282785652070290705686130879475278717060074782204350548376279536170022726984347497922470763140083924789911609918137790523769661543432181984168075488229844837307238792878351719083561L
L1585048162272724954698559682620724194536202743367909985744459620621072627619810719358678440253856586855756702843615969111145266156097139022608390133617012212660662706583202703809995556743681388096302444407811718456749870269093890879375872714218756362284770871277351233816246895795934014138440628851767607927903843462327374128453L
L6148768343949658712803239390046739820746460033597355044776897585077666805839704416993911564801904776237540933517331782630109637518662469563498838190028444342394577504567166819517918542378072096437497035245417000548143216304184420445964360944640103124895600297448793914619109827266823526633L
L1641626929810241426505762596580709045316147823131959041333960243516697330555968230282373996739582157643506679325972743405133186935527142364072951802706018381256775484899902636562909331584767081785752644449033140014401779005994113553908121567526952524917860528498803594289847282878299207863785165939830702223308512828410014994415L
tp17
btp18
a(g1
(g2
g3
Ntp19
Rp20
(L14596838253054082539671560388092437645080741709013193552356662972003633605357798791467510174897239213839725765360704402573785147094692612649683129303531080260820298696629834953671644475055710588130561260603929190317376776588945448621925318394850936780216558374077536882634667878802522092550746684506501800513888325343841838681952952255709805731342039152916339976311785768233722569905254184540411138824502729010461063965024335832629159642019316914424799324045895339342836454900423924909140926465267093239563103621159796513141552265092786652350198646926204801296481767078461007315286925896736603988918620360480498211997L
I65537
tp21
bg1
(g7
g3
Ntp22
Rp23
(L14596838253054082539671560388092437645080741709013193552356662972003633605357798791467510174897239213839725765360704402573785147094692612649683129303531080260820298696629834953671644475055710588130561260603929190317376776588945448621925318394850936780216558374077536882634667878802522092550746684506501800513888325343841838681952952255709805731342039152916339976311785768233722569905254184540411138824502729010461063965024335832629159642019316914424799324045895339342836454900423924909140926465267093239563103621159796513141552265092786652350198646926204801296481767078461007315286925896736603988918620360480498211997L
I65537
L8570967997528528988077589557876820505332821191788542568042313570786636989813064575632890223086127827440687350696715242074620443878999055800312894729061187277368306978404707397152634735936857879555674785702128615923726949916776763566671194935237404049259099430112024876291976888049173065069566662033954125995573239060384754139228932728128501574811608143007943546596805664329381580179431834194029582552013803264815443545531601464799967325816628599490878563421458755153749143628890491365383266454738796212498331726514739206156109336054706213838294141350556168642957887067891088885458909215549208362099336223043898611193L
L1913715073539595967038281991094174006963604373936432527299007640095704901852402315372249092808238886244391009380731379807616663089228869269583643187446170781266172421779927097241887476973859372558979712352351920104601521274921949030098411939461650718235546999263324454816773517647079227577009892289159783996365314652778107716171L
L7627487735703443936270874903905273167484569665312138803282537068066365301800333544453212173453993531534798232234276310258733227016445284964852682879358166699386224932409573442157072020355708733657637036898292497278721001082884514029380016887117492739516040591115917013838472849492630522807L
L1529874118938714190534654776346277134639015523433748462246511257456004565632407069395652447783835874820576678265335283135948429323449027553474010618073451326305709835999419266653904949778208344097381099067159342022373360126885740170970840873587054708482182254076385779586499201009594197037012714601120884433794216477537125890193L
L5555728131460695481053854836395045850787241062961994871805166386639852511508624472862940572684130113086426421928611531600636118907747259152573472541145329288217355591093632571445290293478494775621114204088940455774555223884104782973076040803262899330355947230686626097816398979864507234641L
L291175679370143393868720511313535636293011118761947741074948350810809852240434975420649164246695368476006968937493743549571338979386243377023052477474828767473126605413556831882554625053251298413281572723209140383058452424632561375857439546211184753752236703270668539322073320735200697898436512794678604931008509074562348313458L
tp24
btp25
a(g1
(g2
g3
Ntp26
Rp27
(L26560229876028919594261456449989076177510709242434655643443355185636031323898670529810224461929649785882756997673463138471798166895600709972859193323986824053601823026038934914952446321583508141725220130294969525586825765724745905616403633588603062216171445796358317753904154041802487781200703963635454924608604947731730493344449927381040834516678676971510233014280423451781846851369171962282086159046834716448271999149597667721413363246415160601785726464067445369104133355998695167305312830621623375049156990197819620351159936042897897335910117127328580259533508620070182400311341536023308208655956538281687086691929L
I65537
tp28
bg1
(g7
g3
Ntp29
Rp30
(L26560229876028919594261456449989076177510709242434655643443355185636031323898670529810224461929649785882756997673463138471798166895600709972859193323986824053601823026038934914952446321583508141725220130294969525586825765724745905616403633588603062216171445796358317753904154041802487781200703963635454924608604947731730493344449927381040834516678676971510233014280423451781846851369171962282086159046834716448271999149597667721413363246415160601785726464067445369104133355998695167305312830621623375049156990197819620351159936042897897335910117127328580259533508620070182400311341536023308208655956538281687086691929L
I65537
L14430881264409993879983245209136991692155596605041628670090650952135859184603870488815210837242946268149491297635788568819198149546340999446321469641279320550233512585427993262609315480094382683225531202214676821751006177669511149536733457204677935202914885361196377291926989595503349022886170549580187206490232481754585015641756600699239990979694859271985709120541581906689534071099420445379672199193197397337356015683087328850896777460937756316121323823200020281490537679661294996240452054984452781282398073390184331170217987854123139576262639668077837586212075791028498374561732955420166309150153406883667354546529L
L2912475547476690735588598687969592139267747363320095687079734189031635533958987252574371519759161122039555757893859944826454418646081049116960367137383455563179254176857529677859798198605937387823549946468004976478566569832096968576598200350544842079583150290513894893226271613661523100598333772865806799267772831884327080257923L
L9119468796584458776038038934241755963604997828234868297195806293766726739231291805531880665769644022863968237275983411734892883675324330088264389251826242506630713643730678763116747714281669076781004676972573386816614783152102747581646939102584878974626143876119714185599909864701406823923L
L2387370476005848650480722494414063190466494592442724879161548443916695798095896275318488981994627380519202509571937227764803970643851870540492056136035775459809767209896140376036532325668089207795122246581437895256192298975389188533247355250188740121721873396046461503563003148717681347746205786229519310671285293828798008430899L
L7508390936339789906407625354421943482920519367894857232531066600628023988314711911358389136583368506793366527536731753266141036517338686959010302266495143497799512908770064168012215846238378041625741662950136371503695882998982439793675132933096990777604286088950419728409685160892674532127L
L1969368218569599963458091817125818409708505795022623511312435966793440257493304685395021002750807832397298946908493186944685984096273792111594364495545348508682968259792980849223291389755319282139469982490530887670023702870081686852140786372263098190501824091418322930581747291502255940588542485062733365176829006221656115436367L
tp31
btp32
a(g1
(g2
g3
Ntp33
Rp34
(L11478236447012931007620879785220803158674547974542637004046829885278470957677603920824069128975771303810597041929817821596136535558632518125230864157635941077263411688294472213494576557056762885203764796975604769844377517866832923471876443426544621363860407983220833020270888343275809402822491258867473700823094947527304321431815144522407687676996485462057458531016918143304223039561510049635451514201158215840913012613360345648075370923223620458800687664956328492136539747130973299209905417142507471305561938673252781979728410768369703632872004605562433740686563898532022341150333667386852090839292753887471313389617L
I65537
tp35
bg1
(g7
g3
Ntp36
Rp37
(L11478236447012931007620879785220803158674547974542637004046829885278470957677603920824069128975771303810597041929817821596136535558632518125230864157635941077263411688294472213494576557056762885203764796975604769844377517866832923471876443426544621363860407983220833020270888343275809402822491258867473700823094947527304321431815144522407687676996485462057458531016918143304223039561510049635451514201158215840913012613360345648075370923223620458800687664956328492136539747130973299209905417142507471305561938673252781979728410768369703632872004605562433740686563898532022341150333667386852090839292753887471313389617L
I65537
L10067298002819022647497685138689244035640503717360961252874190589067119171128772311410170096322021305740832332379691749746975360490192651088032642669714383158554376417212483899230690374539264650569870520392369772425113509994406568413063305378659556900927111574889248864583226770524082583632357454883433125581379887984503613732079025137297425514571824828947336929166961883178894710753518107001590112577577871939374995693056188919832041880756351122544295431357262301881652397767377842714021911496555525742541394990503322198882068625432715996192573978536428273546287687450228277298363332358380730744985303644163568713093L
L2188715058292288682963535080749575808747269625831541347911700096383037598247792058142588309614395193382667628001746875166417222606054974328231322317490329886004280004186121548321434780457798028943654623348076297792330976067782851801934919047195338130150691976945441330230899069068451859659571750798281416848159019552448590236287L
L5244280841183890218139277145661510928601721669433434585981330765001641492521742489168132298917844080599210681216859343030302518464733840034414770043321202349045908462760543381727763226673175999053836330610806966118387821613949670012682693237241597001924949368598892866342901800314770912591L
L278962065427399596697963112890446720638203506180796571083608204603315883518681158149824376309703572795908001536515123491540397949683037071634591685887311374304495946945491452051954540506339730774468576053625910790230566597405895312595364127152946570657014054403242007284720080625124408864250771845187370110512722436510720268607L
L2420369601954455154005504002698074691508861793114623738074329182736540430967318386100500444716237086010716472752282596832896841112696712689334933693949012122184286636146270895328129977221776316330948738758031010027661877113037454703047338485845348192886826427087152486813155175765153665763L
L1735161627545929161932438366712566975118974068832350843438476920709601208882217778083450670311961888622137008406129383462360733776323255242014127406976350734250333943166492347323011521529037764704695614295079007983290967042003256372683506523543206071351940735732099220878081075199720507874036399361562599230947010295547204091426L
tp38
btp39
a(g1
(g2
g3
Ntp40
Rp41
(L14695770211001377695129606117797291570060447855469845509512012776523671171601309810634671100043502099938414587855328702487207584073409803126286818360825590124292480464378428471950278000463290735401077906598972841854920492414171065048919550461721963657614496742574029797499556957259367583041833958664740832930999281335383465196019053508953048269734686012649155442618430174931710190326015632658443922034543190799547432873150386166992017502791956579801886684042812377885773499773972603327793347380881766416893604693558573690927878142390162615586084077792609135715275475863149521657361251613655548568042811914785545104163L
I65537
tp42
bg1
(g7
g3
Ntp43
Rp44
(L14695770211001377695129606117797291570060447855469845509512012776523671171601309810634671100043502099938414587855328702487207584073409803126286818360825590124292480464378428471950278000463290735401077906598972841854920492414171065048919550461721963657614496742574029797499556957259367583041833958664740832930999281335383465196019053508953048269734686012649155442618430174931710190326015632658443922034543190799547432873150386166992017502791956579801886684042812377885773499773972603327793347380881766416893604693558573690927878142390162615586084077792609135715275475863149521657361251613655548568042811914785545104163L
I65537
L6240942925562511924727210544738609014418151345246757407582561600259499459053781141181075820626680355302896910282580961100202351037294072670564943903726106235245865942667202057331280609562450337178735680553925448746603401816854739802577611554551561599077264344405761590002710976005046287916270838118050792795169849436769041407933960352817358131304853360579505859665519785789182927307151264503466421922046224316949985411641849923692630454351524388988158679608551633002998164695816102149661114414397862485773543901764813498189870117774305161772741568942577695348569385865362774856059305873901982933922759252824634646913L
L1856884874043261523373296047314599618554687748822007584376831069574182241285302355981314779407973921827310674519133323639683649605633972776806276763425296010996646211429594564578243204059765439003645001484399729231647587581664220228101177921301871627343497146410051932269974667006220972211542426214789776523207019242383833014603L
L7914206430580788428917939183802048527035184527224905495191307634680283534914631350006381933700233509147945320897421783194542161837648383438405162066977360983305414904228777853177148662269440332944926798101274698105328947630411672399770777186251624476662504291582276229210042702857012432521L
L806736393466801735737184466105995009522981281905015822359301021468570287869698246515036936601968986621130305561488672413944986118089264184720159883501052128127737119154597342527676255385411314902280911962178822503512546518954565246421484641549478780617840216209674056907136254233000133386930245534792701938527449515363762110331L
L3074895682467592592970955115997857113445792508304130012421323318154081811030887255523025209848010220843708618124281716671233456930772552718191413121007134026853621308671092214710007116397863179544023544868589615604253948052446288574627512695019990448895392629759670104282700113567116400953L
L921157051180476444405029490174106659592891671918190023110830654554314518238687755388996660776714804746897682445276574078320028399507722293153691125702050397318473559571980644035839648515933101904691686662171772189979155163910793626205391442956999616408132836749434330952647633581923769509097641908543212000371958255633370531135L
tp45
btp46
a(g1
(g2
g3
Ntp47
Rp48
(L23241864252287728226840064042657176361476651125940900877735634362396994377336196466170884464918764038594788144432386109023282305312234661142640954574759955243331816035282966679689497579388200863324962232371930581991354445892281440817303508924866346108896682052725744836441463480834278019008108425774998204292629362443933153822257608164430694452287087843707206789975622168310273566903889518907844367947208851824197241232291768576167919010668356715397143350011505725688624623215506357472404849018473941045079215206743170669991509645814342355995571216773459901642864495134455941798164639882995643301406043163278591082227L
I65537
tp49
bg1
(g7
g3
Ntp50
Rp51
(L23241864252287728226840064042657176361476651125940900877735634362396994377336196466170884464918764038594788144432386109023282305312234661142640954574759955243331816035282966679689497579388200863324962232371930581991354445892281440817303508924866346108896682052725744836441463480834278019008108425774998204292629362443933153822257608164430694452287087843707206789975622168310273566903889518907844367947208851824197241232291768576167919010668356715397143350011505725688624623215506357472404849018473941045079215206743170669991509645814342355995571216773459901642864495134455941798164639882995643301406043163278591082227L
I65537
L11862972078417944015075865271387539961666775360694707955218192853755006468350292323265975803530792923921361341218056177929075429070594651111318531081378385688156195404065650218995275699652329326625925990434005979800613356875394151041085488762770711867932662638596958825149204188433822634752040070930433296581677153256648879922822165857394515214327536627241597877987056687426789050094665296201409433709765865417826221277968222071902533875466604302796667574381004024359706250795401930808345222272327929166906768150376360347475846034349695625796029185549968074444752980112668682644912492679911550744055659040136437839673L
L2863436729295326708300774569699270126635121603488720329077049036139254248477147148340231965515966274645717694605731191533748955483469001979197077579626196280353467121658746505504585449807708983497444559530149522607026189026388837490105711155909442360901940703467367983087338118923508595832960093831569003850205048929533354493151L
L8116772413549155305229745371527916535462430693503561387502344523650392900327155914253939872938536830259043200900913650421835242367052941015641560230963905935543804717717994300910074870342210131470967197770853113750939271388413592200984626856848291990745485552088404387580303476714901869677L
L1374329040389161872066174284600920729256873980159874543404772532031680461202811595755710460889340665104918596881506242728444594576079427762266262954775806094244751946408530621338278153160832599537850658712190872844408635973954573496670203769002723796667081874781666232937305957409386497427800475326487373790503071762187339450723L
L207077581754645279313122881138817407682579064033110374901260662580579778283214133827190555984455095292630426047977899865805705559267475126694122231810605470562113637914834161940913456264586040554487650558812066560745387517912439174207642951380904591429672579506108185239395569114657612129L
L466807411965870624949928897847484910578354655437741959976912623077434585770139876200684286672952675812465305961457469034211156167964433428245995054103983879982147773192662553643788474768192461580376555431979138268680778507172750222875986733251563368393511533046464226044726764049598677991614007340014036965991471777846863817059L
tp52
btp53
a(g1
(g2
g3
Ntp54
Rp55
(L11541755722166486284185845930325736397216178179418444451219720588915822754293770693483974263844448915386634036098645235546310870564202238278413675225682579448932619583630875144554432123906425498641703840279137683407029334843419016263178763096911918100843710128597148826348748269101849258167674244381493802138278412080729724409576820252515199782997328658858229474293985110255874624944514827666483204988262479991833784575917277165185042660549778223530652972610753777221852142764857346914205649751505879117888678230166406004923942423896980831405392837337419877363350798652139318348066958333370117757566723142027048325101L
I65537
tp56
bg1
(g7
g3
Ntp57
Rp58
(L11541755722166486284185845930325736397216178179418444451219720588915822754293770693483974263844448915386634036098645235546310870564202238278413675225682579448932619583630875144554432123906425498641703840279137683407029334843419016263178763096911918100843710128597148826348748269101849258167674244381493802138278412080729724409576820252515199782997328658858229474293985110255874624944514827666483204988262479991833784575917277165185042660549778223530652972610753777221852142764857346914205649751505879117888678230166406004923942423896980831405392837337419877363350798652139318348066958333370117757566723142027048325101L
I65537
L5158101276325346243763358735573958120421512164075054084437407820448838559142320366227506938275173784011461072116410887039624930771242494422028138817538444992596357706104409754930112188185228137231134531301946436506225219162135886099947248002585610712355027327410194118969871798430261728831153837662725176133212460155165460028717027230456476399281562551939322020548856887089058676748938280999646173867510473526688399928919847955813317382734551635943692643119057576019241179497351630758404760513112093991084351480437280404785857686972966431704160663168285008515457603403573067009884057159644241193507781287227714134461L
L2242544463366864781511537104148797990027550698088312190152994258749318726702500090707787497197460834755389297949300043965610065987485333238496692759455035278696248544182363956117250848645704342474434230984139213068814191594055747878948990702361193348262686334312323460935951640999845435859679898702748663026114352019548934644019L
L5146723247055786373790340344243218460738534206981644524848792259866098074674344813871720700432351059737024102594476272539625338937670562694515282964182407116080859521648911810497029468798081872485561328174890865484350895730211148815751612353377289479859235052397389891446926681867553360479L
L1664671034657286796096171148812653515065540288864279715866655747042061838890244089794210201125460001983840181209629641864640799856953689926600631796614553782951520445335120986635765087443198049300986479441344409670640120952427149222011832227278784430163593504096315425653800317118596832463151614995956783306490030233288617445059L
L1133524624990512542827559585101646631098463505250058090417130284860571274392320262499418902147497676064577351676895044293100876485440848710387011830035077350405284439865730702850513806744762710338535364921744583249174066999860654622679688919368414732933887708413627808614140710225922230269L
L2170677134027972382683383248541685635696070159766534137207864212952987926224328299850736555482296391649520296367850713742954795322809528730975676302670275038231699603456494188310758882062373110001895232720476249642695355656884484949218733374776543816482939405243846218499727773113963159044334722988203018260255980144218975267554L
tp59
btp60
a.