(lp0
(iCrypto.PublicKey.RSA
_RSAobj
p1
(dp3
S'e'
p4
L65537L
sS'd'
p5
L11011248136105169936725846472441935950151142762112286642872291944196103700620148830487886878732015057597652924218153138482195031026483866551170690095458897374285215923462179902714675805974803031419913700025413172127088491798305742220428576427831718251945401034113598168735741563488241891408430500228278651777L
sS'n'
p6
L106500024955124634318654338881999285177841712396775816073483086946100951627441365688265147929672383534500793933660729373776212477624361446600365040848006183170709415939506703172337414594184036903997312907400083276125967201048740950423522986820883072696685219549888409581610266848622743019177627385447780941623L
sS'q'
p7
L10699188227789802470960293143651151684179122309931810654061407096177075647039136962965256791567571925965742369761766443109940012997883837708042954006582649L
sS'p'
p8
L9954028538212286746337750925562841876592914128690086846118247058968632839568326077788188824781530050613374711256554182166523968524822879129836375017274927L
sS'u'
p9
L6186654879763860529426953280187260943469758183798232421145550890999637155415255897601418033498501782475235846302569161260262376911648438557382235867988099L
sba.