(lp0
(ccopy_reg
_reconstructor
p1
(crsa.key
PublicKey
p2
c__builtin__
object
p3
Ntp4
Rp5
(L96962353762719845592762205091987651207133706740638038900532753742811827598114438998818639571303582815362143812501760172732697960901713313306918326665589354467220965787429577815610434037818510294746149696317196073602917512920725189035703613679673177151573776166206110438587627425716141779197655442900511075057L
I65537
tp6
bg1
(crsa.key
PrivateKey
p7
g3
Ntp8
Rp9
(L96962353762719845592762205091987651207133706740638038900532753742811827598114438998818639571303582815362143812501760172732697960901713313306918326665589354467220965787429577815610434037818510294746149696317196073602917512920725189035703613679673177151573776166206110438587627425716141779197655442900511075057L
I65537
L44950336939728006298721353054072795809621073259289636356195525034928497582829743284894149983297152037724226823190388293146845742834060971434316353753018631213425265694683252523140566527452233642814260001697510826100948434344075908363482428129343735848494965378948726245752739652469577843245482888546705435169L
L56771850231505129869423701395137611690015136555478708135436950576572426916916896274075034356742196152689145403944698902967659342649726422951569429385721162236032269L
L1707930133813241212967792973305633229922217986527369870073293633432268164464390083570874222805397914601143806319987361825483523150504218512219253L
L1671874985837082879106271933298985161995959741093945507139376453191094861675841277583118182225497636063445849361631885541412980931595465100577215904213525842127993L
L4899383022672526176632208965644735755762042532724194509571374995579083798759560793312546407180902512245220800283162549753435499829024720086321L
L22264152259018307476747695248456965930961831992292738291641374336238000163507094151424910516332301760904257488469839460648434753923751237438113011664631328881523960L
tp10
btp11
a(g1
(g2
g3
Ntp12
Rp13
(L89409187172620519336904496772385644497710936824803997972078855683940140005210645922892758392572630761622823914118578496307371302146539416159608439224111317302893101326596779599940159662835788733300802141073418490127506444019051365758734076293879282559680846412961741941037290821791738630464625183208610135687L
I65537
tp14
bg1
(g7
g3
Ntp15
Rp16
(L89409187172620519336904496772385644497710936824803997972078855683940140005210645922892758392572630761622823914118578496307371302146539416159608439224111317302893101326596779599940159662835788733300802141073418490127506444019051365758734076293879282559680846412961741941037290821791738630464625183208610135687L
I65537
L73909884862961216650077635795669082751849912468080342312515740505869066709222148610992844937607990053583137897238019876038697951769091038800417246826091971385490560489054806895641154681394325189420332421913486694221401273543216037334604461734487313493685100143387527697961326390911042289700327541632180188673L
L31345316472192680183848331998417245331998675269997462801786277126073227024341107069343776927348044472535928460363247851077951049025921943825153396292866475989227151L
L2852393825786954382552772821417116789376965810700288181909760000527615334995218302658761395460865620328735608254421386288799349594017560511616137L
L28091548555438376457850495622244510541062456220272990527490046854796296993265645095302461114345484902420391873155240540232424079733410126319888911269438936795264773L
L1333252667429570679169615481918161322748746413158703142903118514673580428718258728128321983416279300967852631149696970050273745763668461039601097L
L28607515216725034980527023885722652589313083682196430220510487405449682596195455692828797235728571411212555321137299829443842662964274882962651964800985972797145226L
tp17
btp18
a(g1
(g2
g3
Ntp19
Rp20
(L124272628304648560568517771245721273200964964339217200854676412121642945552390191080972493191774465730868710070753134064999691875588104991693632080661456987896106500765408504203248686893009345925987778264918330713172459585372497927794967974087031884130517076418652532318091822887277301606745326708276517587761L
I65537
tp21
bg1
(g7
g3
Ntp22
Rp23
(L124272628304648560568517771245721273200964964339217200854676412121642945552390191080972493191774465730868710070753134064999691875588104991693632080661456987896106500765408504203248686893009345925987778264918330713172459585372497927794967974087031884130517076418652532318091822887277301606745326708276517587761L
I65537
L49954043060525530305278425403928791693336909235276835059822625401415410495325803650413344532769374936509228345879740662653949414384134731543663005884400124225113429729954725966912622230011577146365932351990249049102515351184411286758223504023701145835080494606220674405196599282249161971345132316222943891457L
L42373955813384215408999820006011365065609642837586674245285531066199508760891876843837850139915089305520896986868026418258858461301564238769293700625637291460045473L
L2932759661428538930914088162930818843161881003052570791444384935804935957204791785655877256659386468849131761954394676729697039313255607625344657L
L30649139072918381418630978954559359418421561857120727516506248823276245690107231610059136215914597530396677905130003758254492388133085884468023090632117498925500641L
L2459934561368207479306015539381876537336951044735078947411222428645393205418383649683220603259580596901073013509849852365963897463859712937315121L
L12831828045313565040338179652201599669392893575965894026638692444788664726398232749104190571512851503751896850997006399237599703963723963574997483565813137759887962L
tp24
btp25
a(g1
(g2
g3
Ntp26
Rp27
(L178743184224902667366665257328900105915085907566814150061208779701718839356868106222796327382247850103101819392990239771222000221149203500784942801829227237607115830699817996071604691480708762802015485487031002557661851604503823739439463045602841154885469525721479439269036127195730181653523368389198505125779L
I65537
tp28
bg1
(g7
g3
Ntp29
Rp30
(L178743184224902667366665257328900105915085907566814150061208779701718839356868106222796327382247850103101819392990239771222000221149203500784942801829227237607115830699817996071604691480708762802015485487031002557661851604503823739439463045602841154885469525721479439269036127195730181653523368389198505125779L
I65537
L84297333384550584295419225376835138526686836917696747640139783069422248300075978868947142632871760242102492237950201120724622470288227746193158221259724909766723947858462799376254311574144424690753843781029407251599519365856517850272619673917234395398977548398230156816863088137875074339464614483527960820033L
L57339173160624399787372864904655476685224926380394812001740312425125987397573670488642927744267726184911349496206506449524269902600895864353834443262075558353172459L
L3117296158495150304119290109825414475726875033266795532693958137401632830607515785576677464467481666067862251288455556304492255580643685060447481L
L37944976730339811385604485266565574009158262616807650586927649264960466201272107192768112307076785398166001306902607454046837445653613281612307548473018553882190053L
L43379680127982316513676130737763065167201886420484879164699174837271909631415145588689287693888082754076176406839975393284662665205106135085953L
L37456006700817195064977237151528634656320688421026386393068298573172613974695426256549514066586362834892157193072127910354975024523261257340256109463246794454982562L
tp31
btp32
a(g1
(g2
g3
Ntp33
Rp34
(L122466179984610215072714508958912054872109942368354300157022944998294938895087767605662248004772036931818403217238854985046651238544339625789767275961299062776341615212852270696160228318788552775701374231681478720808409383216209384709709027840898148181300321466833448015628291579503409568183027748019681666667L
I65537
tp35
bg1
(g7
g3
Ntp36
Rp37
(L122466179984610215072714508958912054872109942368354300157022944998294938895087767605662248004772036931818403217238854985046651238544339625789767275961299062776341615212852270696160228318788552775701374231681478720808409383216209384709709027840898148181300321466833448015628291579503409568183027748019681666667L
I65537
L39707094595312303890628356514151124616284910285566329310718839102625526902081571842664710130970307044329298716192508500194642601398121255297111005781023860764775682348045941539029376061866637649757382750247580635071882397470480593931578030307978728862539227726103377108499227135965764446943780856043771447145L
L40520997836227275590540420008017690978588748073995265274742130695184834038803135920413398483894616887832408081477707595712572944615682807172332612670660840214991549L
L3022289344393214968636033521669412070438631884195736902620034033303538914465790531001289514510967782277512441601031536074189810341747043900326983L
L22505207748917963962648286431662052488360038469038156472455846547355429363235963568169542264908069641579746124444315101032118385203262866751083125083531194943092869L
L1926486372004006215035328140863019198965070829642444864838975261932272428579403992135417694870007463030701470129592328295455686513366232188476123L
L18938891320502076480856066397265393826949217359676903387033838183111216339129866437297538665051218353983918661808451463407382247862546892977000727570599690948540594L
tp38
btp39
a(g1
(g2
g3
Ntp40
Rp41
(L66502328765566050652554086264541603587964006762051611306151271218121787241112888245345681200143814600409634169082924304367417946864011771149455087437338549185229723817357120439667898728728090475843760111193824430519255940764583616409626464915760618254424752049613691765642279583606504032199487398262158146459L
I65537
tp42
bg1
(g7
g3
Ntp43
Rp44
(L66502328765566050652554086264541603587964006762051611306151271218121787241112888245345681200143814600409634169082924304367417946864011771149455087437338549185229723817357120439667898728728090475843760111193824430519255940764583616409626464915760618254424752049613691765642279583606504032199487398262158146459L
I65537
L32903619521068171543703843648839984099719561213761471355314724819854693884070471859309688551442136994871336764982878427352760949463851651605844475034177551716718541114450368532885938467654909053941416090958720149385218605954178764062634903137277584408043063014093206088161818026629579860414768623495860696913L
L40243269154043720346077211500550037578397445951958970476010520202938804706717794331903790131718860654264402559068837754852953064171219402282414840273861527149876461L
L1652508112872429748279388603246776491824316326653305276670746141009468538610641926774213614951676836743968938403559071834788518077063594681911719L
L31643440286344828064666537422316318056822515293595215932523217832641751745526670087304364146478116594222396397057163849170428571690362363831383822100380429636502033L
L742477591156775048718050518198949914983273853771659172327796372555423815370385616915536172022934771728381057421474898595406910650429751270329317L
L15244803643130997431238986295007320733239415991164542817780535034207360698462953965915503241943127047821477649545214803941861446035818663834333274417639668489229660L
tp45
btp46
a(g1
(g2
g3
Ntp47
Rp48
(L120870155571207067936109972700614096562830221187519524538127060964413094657382738857442318472554104611356717984533491376607938201460642845079698912559437225270429615517130793859724461978839138367738292883891880405220823749956645459071634050029230620862526259997604991141743999483793471396086674631642215683919L
I65537
tp49
bg1
(g7
g3
Ntp50
Rp51
(L120870155571207067936109972700614096562830221187519524538127060964413094657382738857442318472554104611356717984533491376607938201460642845079698912559437225270429615517130793859724461978839138367738292883891880405220823749956645459071634050029230620862526259997604991141743999483793471396086674631642215683919L
I65537
L3624057489622989891121902076028910382622966944374564989508516941499789904966005185694709184103160284439567737913061485192099097698554453065926244421443319052235940089051737191996893789268746319997279154145638638742364097025210064869975668833068818994963342076366594751445337317770446398457653519775154963673L
L42000592034061072459653975296358056602907924120198830542518908329558782902178880047122866314778589560471060041559271351631879669956501576510610797503428413640255339L
L2877820281037596394303838261133965417578600487504321730310648510793516466646344081757704310375200127394770739146394572306527925690935796345986221L
L39067337387984847904855369242809209004276470609996196192562257225230074701570479693495429002684023064929975740931888575849968486207002702352668480641606971565832513L
L953843052698455359217968089908784302007146494187541032177364037893964702206263425911177701603217986286665700226406196494230733812327500011100793L
L20705542421753005548353692763401950246146441391957434544008198808599984822686904361513183174532326036685847411687682143608396149906568278668824260033044567721034402L
tp52
btp53
a(g1
(g2
g3
Ntp54
Rp55
(L79041001212617138866347466921076709132746000543707581309647034833666393856154201611807786138275110583655277926669744592472484370603867267271730587141707639799950426955091303766141743592977603785373195085403176315726540786432671052633990582029863223322293475016985509006990897105587652498999009095430679932651L
I65537
tp56
bg1
(g7
g3
Ntp57
Rp58
(L79041001212617138866347466921076709132746000543707581309647034833666393856154201611807786138275110583655277926669744592472484370603867267271730587141707639799950426955091303766141743592977603785373195085403176315726540786432671052633990582029863223322293475016985509006990897105587652498999009095430679932651L
I65537
L65747900897291962178600365582838652949809240881337546654491479682581190183686258157494262192777631772402878925986864312657544371324134825752145974568321677630311677191850441577702641066873594212014969244400434120641531407199091460508034934750967653196208516781218653699484128074024789340419019373249441260473L
L40773110046718087884649253613527936045067319932801570219771758751636536209105630075786361579698952937317679632984755765712750475058001003569827869301295701451519421L
L1938557081420854547693782136839570653212016042564827605021468341261919203774597164975852329066537644139877480870718133332987500591544301389618631L
L4694659328509615807521907743224160480279506175334858917533571746339461712222272678820878045690347420007006889398400399897285733017801784838151290137595211302823833L
L124382143329335999100544026815545334646940315531457040742104069075581278542993745193149809172296424822744172102192192969852334406326865546841423L
L11917525816627829814871853641525085206465758374098554243520595527261311248461809320027249522528731000064694763234203611107140592794043876549804051577499099121925509L
tp59
btp60
a(g1
(g2
g3
Ntp61
Rp62
(L80612041516119066013767568079625496279119772208259841419813786757098892803198670828724060103785975937697887935852558543652893999800094597188525173017007468463361820301460421212221333663397243221824102143795245264114354198613420569207166282048712361203962537512288511605470787247428538885039528705222290157137L
I65537
tp63
bg1
(g7
g3
Ntp64
Rp65
(L80612041516119066013767568079625496279119772208259841419813786757098892803198670828724060103785975937697887935852558543652893999800094597188525173017007468463361820301460421212221333663397243221824102143795245264114354198613420569207166282048712361203962537512288511605470787247428538885039528705222290157137L
I65537
L54161618995060360312254563456523024820459907069995660424472595209962853758994874232894495301127727519792652997228980733824677380612441298777825159187886769598177597304846824718658703676702735308052966373981106811270241462596766923556502098635948894037489237078772151562444612277544181608589417807939557183157L
L33741997016775860053450105091825474512858641992367965720917885802863552210095670212070033689157350650190122842318879779713968314475989951696188257528390764447395563L
L2389071443401537194777456017009154017288598793635085846445863193195443945227296018643078600923321458210646764274493381436295171283922684973342899L
L4274319227814413082132883294510506880170780563965986410959614995122956657280837604721079995840278393851998105450834489390502539737547775744720614523104507780982925L
L1458515776591780264019500667417432171623919888510914212067976659898221039238050470816631442131041877763827716230869282867176858920453280220081013L
L32257770886029960096019277653427680212421936296914140024069929430845361262995005472623903757612448391520533690204068928126145907285121165967070492850539133150063297L
tp66
btp67
a(g1
(g2
g3
Ntp68
Rp69
(L75873213378728113817434549942803151593922247774804758869269836819231446205976694731152051716278503758930573261548859375038646980988518637670218040919945901734485345664166268287725650744983954499064326952643412210934066347245504474166303692352091943063347465274583812533134511194705383157338623358560695375049L
I65537
tp70
bg1
(g7
g3
Ntp71
Rp72
(L75873213378728113817434549942803151593922247774804758869269836819231446205976694731152051716278503758930573261548859375038646980988518637670218040919945901734485345664166268287725650744983954499064326952643412210934066347245504474166303692352091943063347465274583812533134511194705383157338623358560695375049L
I65537
L12966415762725710282058485425933370429710380015530361465062822106220794322397103635944626382384290432885582503461361139515584268231249656558988686572456058717627323490164894045033992401079106164147025918945113183852745954309034081989898118157145877376249188375923834155267029717549855649437044406794227657473L
L45214673337432954817238337903850586818187694433283800348268575603476474265875599090489975461381666280751711935817312253623838445084726080522753816018223107367910031L
L1678066162559514478986796540797433296751040497776410031578115059820675489366965733569422193517730819445923820200879422638109133714127589640144679L
L28324971062783578634611550742031061727078047250452411723126091215288007193795697030061742718502306953668039202845958342383391232454926437919681716746939406687778113L
L1521108328412546754553437326993196512810916930152481662968416030010022869475614284055703865759919355338572049173347023218367476487406773543983931L
L30382839598524255661099575990905983008518231736291970584509358202383927998738219695679197672710244000115698444601311351271817338405545422972832274831788503167190507L
tp73
btp74
a(g1
(g2
g3
Ntp75
Rp76
(L90659055185585226534103493064227473029993056843410309828627200692404341574922724191578430416704432445531039743758559772878608589549349952647277840037867602806906653669057570635284476925655326126231536411547857201192648364224749062624283324374041395594273590470339068563398471254605708902028976873739839421479L
I65537
tp77
bg1
(g7
g3
Ntp78
Rp79
(L90659055185585226534103493064227473029993056843410309828627200692404341574922724191578430416704432445531039743758559772878608589549349952647277840037867602806906653669057570635284476925655326126231536411547857201192648364224749062624283324374041395594273590470339068563398471254605708902028976873739839421479L
I65537
L56835344024824978521753759190027769914861753413619115760852299733709580510967469462062520287787330995576366005646645205433427110032875965553291364284894041997876138237405108243402293422929270192275160905775712812170854433269438104789067597650107339737222407336980100243194452453363764666804449136071468590625L
L29076978228557410265610673207739118480538392047219301147120839859135261230972334364461106416625061498194014970512478505558926158274941748751692329014629158766414153L
L3117898100447938957881238949924037500708664896022139340115125083402239252983029744079631234516690084377824986999836293138756495386889698245839343L
L14197082965891154173814424401093184800322688055891640102640031656201370586537127536023787238133960097055255581449086770822284787809021789497618182647040884559355577L
L1100591340094337852688169764675567748621301763958926583368529283907218866876869708707114896612739496955866201523631121434792449521343764273910117L
L10907997495374058685366851744800724209623737481226593662741906973931084527702829447504819249823353508178883285174929833903788675991582099637329762690649136432614052L
tp80
btp81
a(g1
(g2
g3
Ntp82
Rp83
(L81895241357302072204340253764623871944352645076576865578635066003966824597646828273733993845829773660245310864390543241845479711602540795548318891744007405812134365466200365550814947449332964607628053644487291756665301378906763825446613577010390905118021340428660626793358150037588603268544455257915813089693L
I65537
tp84
bg1
(g7
g3
Ntp85
Rp86
(L81895241357302072204340253764623871944352645076576865578635066003966824597646828273733993845829773660245310864390543241845479711602540795548318891744007405812134365466200365550814947449332964607628053644487291756665301378906763825446613577010390905118021340428660626793358150037588603268544455257915813089693L
I65537
L15793734158031965005884560894320477249563957476278361903174826422084268368855124014705036059286243027478225796344539359959793980117254575505976807279669909263535619357411843049908957408214503667505987842519365834942756437382877179904372789636247577326227622222507623752536900938522683934188017220966315764869L
L35925688959463187936584308846908358509901926863694515239255257004915787931120579440832125340897090580975025848249342119667513300260176121937800119100536350405360787L
L2279573300590246346427685084467401925455359594640177676561297366371801146126047608215144077539413427410908350406927060372486790725034844192737039L
L7748441543586251453127534149427798763102731834205440787751545810221472792565869514871936336627864799458046452614621524657831461604552992715424945961610713230385503L
L2158911082610363767491242471012141274534434888995934327613510001006529953121923843732510835172746885157090795932940915562194029734676025899183705L
L34659556179418977235328093218041206070666350800309428628967632335466926087128947797663560378232472910476690554017248951003331024883894706986518985603775238578330589L
tp87
btp88
a(g1
(g2
g3
Ntp89
Rp90
(L82075948639998687908822732549324088296098673288501777250166110651662014674653712379169998087598154003278270168197462058616699906113612103758185591176795656650445812274084515486659212866422843351686794296973909041827946830885444035530183013634204449733142552775113711632237774379640129553266872825386832892969L
I65537
tp91
bg1
(g7
g3
Ntp92
Rp93
(L82075948639998687908822732549324088296098673288501777250166110651662014674653712379169998087598154003278270168197462058616699906113612103758185591176795656650445812274084515486659212866422843351686794296973909041827946830885444035530183013634204449733142552775113711632237774379640129553266872825386832892969L
I65537
L27767336515953597331498506585342839704305961276113667168022384383915195833901797623799642913136491913891173019352032115654507687540641279956764729734979269100033758542697704410083268320321683639332243559477873205806220609323755215873621438400643360911951710943024710209232910498942237893597860610032001760449L
L37656980738780659032464497638595198268413860519880487211012142217504258683414553773825576491250798863162170587513898225780676659998532005663225941798124880327593717L
L2179567958709807184940162802423440371388859231845664055042109635861103361246487561928727692181215287243918661969633978619095107728913041806608357L
L8707354412247770068479896809668914270710341369276422527666478526085410319185561558944608177799023543530517617272466144521115920863294841293018080199105611127826345L
L1257582476931392173754174225412209503085254482094266453718698350099207508768705932019666889728557530430772545031352354662289430453959103451105305L
L37467717066708526966050747184617339719735953885907269495291776549528032676758766439486027483366520455371204934682390727943915580159036196292340775139868540905238620L
tp94
btp95
a(g1
(g2
g3
Ntp96
Rp97
(L14203147772779997023759335572006969002411514532254003154994820123019976062423466302189670425357084097215138886420289432933000083007895822911442280075788332084833216586338107231000045944938253842495139876319343586913671455303147565370780429231896717464749908543722048444235374385717047503725745254615759779707597467811677839323082632000375081829305049717161832271206939507271134960909186223093342586300422067199587468706074086247059046708347469693253298631221203545994063328467376494178111800788085446564661763520611837919777714132067707134477731763368658967337047008328109416499022587416055677839171435486401708365607L
I65537
tp98
bg1
(g7
g3
Ntp99
Rp100
(L14203147772779997023759335572006969002411514532254003154994820123019976062423466302189670425357084097215138886420289432933000083007895822911442280075788332084833216586338107231000045944938253842495139876319343586913671455303147565370780429231896717464749908543722048444235374385717047503725745254615759779707597467811677839323082632000375081829305049717161832271206939507271134960909186223093342586300422067199587468706074086247059046708347469693253298631221203545994063328467376494178111800788085446564661763520611837919777714132067707134477731763368658967337047008328109416499022587416055677839171435486401708365607L
I65537
L11525577991851714325000671138295537261184508992696223443076956891259111142588229319057189870780481963747127824856246587763291124319482363459974111402575264002557335924662911313594525892910969617949807420272751737785417021467750947122218667125604333860419757330549551861716674253951264481789254795942273123290943377625769181615226066667398008295585439947507938532091905429900003579887157641220778706348018183345599384057490298895438885490900233418689236438950730829377636666706386827308779500330124637014913642962633019146815351038068277421151666201386930149247566307692789180858101300692599348705103759386590561655489L
L2260023491154580935107600197446805222871941274761758899757998873006943952757887988068070160020202409725343299667368285611888171088214252777132587684090902609627318570965454446657589384275352837325355367098973578971900021965765828920076813119351356052475697474603061318313728361010271868884846059646135739395410968886654385531889L
L6284513337303417911855141852835601783502909535197202546224038769710879316103165177625459985282237315017312350247906304403000696946470652401003780867280820905716418023371986880370417068326506614968516728900761270599365193201398461492993478891258544457142475957447983344546727384994480909463L
L2017354688687962291587875727461405092360171575958052636462501092068697395918892340235013875538731418419100401766041239426514152443055583677346481827354285406155273149541161254397805498880146191976033217499884864578118487037815295052023949333690195295326736076785313443113861011628559505771754802467292380710614487691979821377473L
L6132523566034883841173078288181369383074874812623884175902463149069230419815213077185458854979166589407314332713644261702255223326070634334024959855109984566922141163475369714412452696242073195911722871761928144061684282704668117390175304973583875293699370163887779893044422383160154464225L
L1882541348770035684355672046887352774793633679326276985180484655118587002465723679676748924618419642927666803363815797898699769790600954462707201239796115280170103050745161595639441653358022850177396547674850142769567714308491656218627428511090785240805252367927593623188427658649157585690459288139157887814164814908365903135022L
tp101
btp102
a(g1
(g2
g3
Ntp103
Rp104
(L20348257863129149402259257666530615004970718996631181212027894402984759383710643169201762498744123013178809696886355608255268222390888639770070878065789291768126591401747923085862013641014299198803446351341865757407926481093589999170756867651265713924020070557492704146770376156986972744386935221590896220951940588527346713952490635856642833584624454283193212327532073720182427577378581840024561733950560128454440936577486027443539265111750191376844166470041587566536764080427733436492159686162407781025981376371515937568417479546916871413773456032041930394544172583626621708764203732718622504299641421115956736446193L
I65537
tp105
bg1
(g7
g3
Ntp106
Rp107
(L20348257863129149402259257666530615004970718996631181212027894402984759383710643169201762498744123013178809696886355608255268222390888639770070878065789291768126591401747923085862013641014299198803446351341865757407926481093589999170756867651265713924020070557492704146770376156986972744386935221590896220951940588527346713952490635856642833584624454283193212327532073720182427577378581840024561733950560128454440936577486027443539265111750191376844166470041587566536764080427733436492159686162407781025981376371515937568417479546916871413773456032041930394544172583626621708764203732718622504299641421115956736446193L
I65537
L5988014421598620250728169482226977752809333453911972791784335130627951683388673026858495072261152576898035061326430173196989531669601573257939590679720040298458724716940208502585330348972363311535823524604104902533977297013457691441585927789223042842038101847380934314579756085320517514506139231269248516162182644047534326194465261260425692484306607228151387649719492683442733158390806285733325176787346547572640287519936516695044200752359034296348390682168573137533224708687346547078163105038569766144484720363226434466858058844672608418353907133564323254858901712155798304018490583279858360744404422643340835482873L
L2985890485807555405898695810181042698378779715876193064129905148197391283206663206072950336144357892476046961387359096736861335334466345760955598111647826596559271185473709502560451370231545651037261670246162818062229524595331841895709062580676224403079115172814860867191004448220363141385506737810253399769833273581198248180651L
L6814803811408313504913237901685795976017586867622890852689593711278844371127471193462286963538218722762460699814382270703619740790952951743867012112467436193175760657884143519020174992777954655676549160406947025541379549862501801868990933832342076117688109892706064598975800403335262348243L
L2506731991533510817287123967776385389395310434830830559659846823226886619803021340588274219061943196118713151586622785639594590385619395818663915163996878394535775220482528904754200442347675995545571770098476864210810205582116330334038979861586674194079877272506731234460672059158710042251408833396709371123735091817408908172473L
L1976529149140931429595355692742170223112780432118893286661333250896261254045668438368114967162586958241433892031551309970465600087804350317338666192132398906875274403543979736782817130212297817951689067870290813761547560672390165096445972050676078899629455007714068021077132216405948803201L
L2756072512286299334427365999062345626840066926653078073026653067640189238446264304472418250724821097470106398126425568882355217415497366776745098683323294257865319709124571751182960784784013088194554005175855455663161879585894993040367720078290679984516067531851947210612163078149124499214777350410259928641560653582411950626379L
tp108
btp109
a(g1
(g2
g3
Ntp110
Rp111
(L22867044757148059639731401982171382494099876854688878568731030361128631829524901497519257457738729558464941101699116155546576685935565848670229826720493786501565751459670246343572627882241986484177931817497617430055797859844052905885515258892817325722976049665771197812657356842622433223701669147406865351622260430969104413552489350096876531941916860477307445082939255831852100420125925921111589565894534889366381200908594434536193361147501300464029958131759927447112589960346950615831111497162161662552208319836183709391298230636347721203868911136189170903551061380334917245059500101010415230648704870804636986216257L
I65537
tp112
bg1
(g7
g3
Ntp113
Rp114
(L22867044757148059639731401982171382494099876854688878568731030361128631829524901497519257457738729558464941101699116155546576685935565848670229826720493786501565751459670246343572627882241986484177931817497617430055797859844052905885515258892817325722976049665771197812657356842622433223701669147406865351622260430969104413552489350096876531941916860477307445082939255831852100420125925921111589565894534889366381200908594434536193361147501300464029958131759927447112589960346950615831111497162161662552208319836183709391298230636347721203868911136189170903551061380334917245059500101010415230648704870804636986216257L
I65537
L1875783643047865612145749989412901907140713459127018496200589273561919598326531126701916903318788014500320786162540983752970020958994186527475403946616027529981803864186448026962577589681140719577346559208801002547873251667327287212422448873274424265479335993456916847595189746035647054497553414599876351772563736454772687833291945407922940920229080504853923583933787128450041224185386526561690028603878694656393898834553109620754705666692922244809127577257334459325382940603382796354533155809489800614282404266656406661271112312874745617930429645694150455142583699589838139803432290572348509824159012483497174331393L
L2606994759525979204382901944469435403214539577818258773665257678110373527260044221646496851873950503081604073689504266331188854544419886615050046795527796785669846126569608600496332046666205693955958318523697439910106784088605615712251897141472333660061160599517588066853704373289137098576471725895664571955882863643613065714677L
L8771419533388665079495461657713311581628455958886360395264705367507924382783969073866649206416522397445184649954522064138424127453352987091030648367519787074736617573260899937818438942544439780287983857808385393081082439599868108520365206446966499106253444452547480057050206355414859088541L
L422054936884059986854793317222648421931218470797438478852989669419580742545875905086734693354633487002698006040032962536794692261108915528414193455613621677769154331185491359861850298535612591557024547347855865197464531168349261984939692519813562722328591695696806527447362610442921473608745670564002031042798986576418429699753L
L7951252926729743560244531815967928464118970048392202644647769674813895656755921368224724395440730871260829376827566127659179379402112510644232109935852770653570162097896711848358265394168524999727311793468397513123182731192892022202517303962766570721934340624096208900457691218225450716253L
L753826447573566991488923306472874597815855704686616044540650910652999510525390107513307616316078922623437431829639551075811084322723959929717608817158017026254026523086725890718094934788718861473935072212504445286202332502138241756444341924541013262689885918042368019129590999532487240029059838445003589887932895940558894479186L
tp115
btp116
a(g1
(g2
g3
Ntp117
Rp118
(L23579118986536444199626151746836927433293544337807409482793224045467042887769345092034249500633596741938366687910382370886370805467466045395835148602800078614522124756533673359330350160522333924450477102956943433143803675270266102813295383664743019256295444629034160597178417941197034850567626448495636063633202331255081646835343598045483134076768111651582962213560319698310715008161036148024883171500046491838888288263338337330485645064390041514505951839026887427198751553354159524865849304559371361932222207331542431527697526399342212574916593823742486696940734853441441943423015185835092284903162326542848077088023L
I65537
tp119
bg1
(g7
g3
Ntp120
Rp121
(L23579118986536444199626151746836927433293544337807409482793224045467042887769345092034249500633596741938366687910382370886370805467466045395835148602800078614522124756533673359330350160522333924450477102956943433143803675270266102813295383664743019256295444629034160597178417941197034850567626448495636063633202331255081646835343598045483134076768111651582962213560319698310715008161036148024883171500046491838888288263338337330485645064390041514505951839026887427198751553354159524865849304559371361932222207331542431527697526399342212574916593823742486696940734853441441943423015185835092284903162326542848077088023L
I65537
L8812892252852742735704145551959511992897529159933968525886446175346982857560005920768099569983672615374220547482564294594834259730008709308802385904536184531832696734841270258583653923462999061284685546133181704912606177056398190158409301964811942211009916782705826690692057119941733199026222403102511025660117516330689582429847325560337953382012231226409870581321601395858470553258801125545356333660922553138536611298667953399092861647186191473029755729673682539900672164493167133973886591906861827556125141713496719161729369634002432148927799538719179701808965147190924648230065996446398780726467402604505419392153L
L2958653756739754644138372579253797735319128185959329554861415618266570119531247382455620943905023986906653302303693523387734644533395105829987438569103098808128488944536973489822797807740252348358446067092566802980194705224296961791431938120194587361498937285065534225207414910252569163850583570995904736700615724396727666884709L
L7969543219724064795628554842267240464108417901365358441680690823638399952185531625667875422909075063823420874889252134099402014488928731518825693179177866066635506346167547621316197250032386098696382412496578234675823578111984922541478797997951013046453447494519783659966721987252409766347L
L1952150781221912359763667959657792112404744510997655196474012148329692007702064472162991300430917607486114745841529446546720501379572930807029873485285505877002183788389273351647426992421136030756914793677110238406847726373026675340419913456420866788011917635546391061025360262891825927082822448037061699870424724268173669399401L
L2010839169955248721493412619920519528121470290324207198859146794325107673670444954179226818335054476942552872227423795557741607207972984793251165943068574900863401329634047445963114541808986321132236440072682876674236212943219596245569577546944748031434978832863560166031550342267815858161L
L125752069824674574761488086101343806933411004564214667790675681001183102092832374033155935404699469830341256588773680567903449962283752623830206355168578275134754887467796044064252573805417493925601177010823079991109332196976029654267399385734665711530680296613936458933687230735001419195303138323750442631597438120814439204241L
tp122
btp123
a.